---
triple:          'arm64-apple-darwin'
binary-path:     bank_debug
relocations:
  - { offsetInCU: 0x3C, offset: 0x3C, size: 0x8, addend: 0x0, symName: _.str, symObjAddr: 0x79900, symBinAddr: 0x10007E2E0, symSize: 0x0 }
  - { offsetInCU: 0x6D, offset: 0x6D, size: 0x8, addend: 0x0, symName: _.str.1, symObjAddr: 0x79920, symBinAddr: 0x10007E300, symSize: 0x0 }
  - { offsetInCU: 0x7F, offset: 0x7F, size: 0x8, addend: 0x0, symName: _.str.2, symObjAddr: 0x79940, symBinAddr: 0x10007E320, symSize: 0x0 }
  - { offsetInCU: 0x9D, offset: 0x9D, size: 0x8, addend: 0x0, symName: _.str.3, symObjAddr: 0x79960, symBinAddr: 0x10007E340, symSize: 0x0 }
  - { offsetInCU: 0xAF, offset: 0xAF, size: 0x8, addend: 0x0, symName: _.str.4, symObjAddr: 0x79980, symBinAddr: 0x10007E360, symSize: 0x0 }
  - { offsetInCU: 0xCD, offset: 0xCD, size: 0x8, addend: 0x0, symName: _.str.5, symObjAddr: 0x799E0, symBinAddr: 0x10007E3C0, symSize: 0x0 }
  - { offsetInCU: 0xEB, offset: 0xEB, size: 0x8, addend: 0x0, symName: _.str.6, symObjAddr: 0x79A60, symBinAddr: 0x10007E440, symSize: 0x0 }
  - { offsetInCU: 0x109, offset: 0x109, size: 0x8, addend: 0x0, symName: _.str.7, symObjAddr: 0x79AA0, symBinAddr: 0x10007E480, symSize: 0x0 }
  - { offsetInCU: 0x127, offset: 0x127, size: 0x8, addend: 0x0, symName: _.str.8, symObjAddr: 0x79AE0, symBinAddr: 0x10007E4C0, symSize: 0x0 }
  - { offsetInCU: 0x145, offset: 0x145, size: 0x8, addend: 0x0, symName: _.str.9, symObjAddr: 0x79B20, symBinAddr: 0x10007E500, symSize: 0x0 }
  - { offsetInCU: 0x163, offset: 0x163, size: 0x8, addend: 0x0, symName: _.str.10, symObjAddr: 0x79B40, symBinAddr: 0x10007E520, symSize: 0x0 }
  - { offsetInCU: 0x181, offset: 0x181, size: 0x8, addend: 0x0, symName: _.str.11, symObjAddr: 0x79B60, symBinAddr: 0x10007E540, symSize: 0x0 }
  - { offsetInCU: 0x19F, offset: 0x19F, size: 0x8, addend: 0x0, symName: _.str.12, symObjAddr: 0x79B80, symBinAddr: 0x10007E560, symSize: 0x0 }
  - { offsetInCU: 0x1BD, offset: 0x1BD, size: 0x8, addend: 0x0, symName: _.str.13, symObjAddr: 0x79BA0, symBinAddr: 0x10007E580, symSize: 0x0 }
  - { offsetInCU: 0x1DB, offset: 0x1DB, size: 0x8, addend: 0x0, symName: _.str.14, symObjAddr: 0x79BE0, symBinAddr: 0x10007E5C0, symSize: 0x0 }
  - { offsetInCU: 0x1ED, offset: 0x1ED, size: 0x8, addend: 0x0, symName: _.str.15, symObjAddr: 0x79C00, symBinAddr: 0x10007E5E0, symSize: 0x0 }
  - { offsetInCU: 0x20B, offset: 0x20B, size: 0x8, addend: 0x0, symName: _.str.16, symObjAddr: 0x79C20, symBinAddr: 0x10007E600, symSize: 0x0 }
  - { offsetInCU: 0x229, offset: 0x229, size: 0x8, addend: 0x0, symName: _.str.17, symObjAddr: 0x79C60, symBinAddr: 0x10007E640, symSize: 0x0 }
  - { offsetInCU: 0x247, offset: 0x247, size: 0x8, addend: 0x0, symName: _.str.18, symObjAddr: 0x79CC0, symBinAddr: 0x10007E6A0, symSize: 0x0 }
  - { offsetInCU: 0x265, offset: 0x265, size: 0x8, addend: 0x0, symName: _.str.19, symObjAddr: 0x79D20, symBinAddr: 0x10007E700, symSize: 0x0 }
  - { offsetInCU: 0x276, offset: 0x276, size: 0x8, addend: 0x0, symName: _.str.36, symObjAddr: 0x79D40, symBinAddr: 0x10007E720, symSize: 0x0 }
  - { offsetInCU: 0x287, offset: 0x287, size: 0x8, addend: 0x0, symName: _.str.37, symObjAddr: 0x79D60, symBinAddr: 0x10007E740, symSize: 0x0 }
  - { offsetInCU: 0x2A6, offset: 0x2A6, size: 0x8, addend: 0x0, symName: __ZNSt3__119piecewise_constructE, symObjAddr: 0x9A3F8, symBinAddr: 0x100085038, symSize: 0x0 }
  - { offsetInCU: 0x12F0F, offset: 0x12F0F, size: 0x8, addend: 0x0, symName: __ZNSt3__17advanceB8ue170006IP11TransactionllvEEvRT_T0_, symObjAddr: 0x3ED10, symBinAddr: 0x100042D8C, symSize: 0x80 }
  - { offsetInCU: 0x139FA, offset: 0x139FA, size: 0x8, addend: 0x0, symName: __ZNSt3__117__floyd_sift_downB8ue170006INS_17_ClassicAlgPolicyER18TransactionCompareNS_11__wrap_iterIP11TransactionEEEET1_S8_OT0_NS_15iterator_traitsIS8_E15difference_typeE, symObjAddr: 0x6403C, symBinAddr: 0x1000680B8, symSize: 0x740 }
  - { offsetInCU: 0x13AD3, offset: 0x13AD3, size: 0x8, addend: 0x0, symName: __ZNSt3__124__put_character_sequenceB8ue170006IcNS_11char_traitsIcEEEERNS_13basic_ostreamIT_T0_EES7_PKS4_m, symObjAddr: 0x64EFC, symBinAddr: 0x100068F78, symSize: 0x103C }
  - { offsetInCU: 0x16ED4, offset: 0x16ED4, size: 0x8, addend: 0x0, symName: __ZNSt3__1lsB8ue170006INS_11char_traitsIcEEEERNS_13basic_ostreamIcT_EES6_PKc, symObjAddr: 0x81C, symBinAddr: 0x100004898, symSize: 0xD0 }
  - { offsetInCU: 0x16F1A, offset: 0x16F1A, size: 0x8, addend: 0x0, symName: __ZNSt3__14endlB8ue170006IcNS_11char_traitsIcEEEERNS_13basic_ostreamIT_T0_EES7_, symObjAddr: 0xC50, symBinAddr: 0x100004CCC, symSize: 0x3D8 }
  - { offsetInCU: 0x17D57, offset: 0x17D57, size: 0x8, addend: 0x0, symName: __ZNSt3__17getlineB8ue170006IcNS_11char_traitsIcEENS_9allocatorIcEEEERNS_13basic_istreamIT_T0_EES9_RNS_12basic_stringIS6_S7_T1_EES6_, symObjAddr: 0x5FA0, symBinAddr: 0x10000A01C, symSize: 0xEAC }
  - { offsetInCU: 0x17E28, offset: 0x17E28, size: 0x8, addend: 0x0, symName: __ZNSt3__1plB8ue170006IcNS_11char_traitsIcEENS_9allocatorIcEEEENS_12basic_stringIT_T0_T1_EEOS9_SA_, symObjAddr: 0x6E4C, symBinAddr: 0x10000AEC8, symSize: 0x13C }
  - { offsetInCU: 0x17E80, offset: 0x17E80, size: 0x8, addend: 0x0, symName: __ZNSt3__17getlineB8ue170006IcNS_11char_traitsIcEENS_9allocatorIcEEEERNS_13basic_istreamIT_T0_EES9_RNS_12basic_stringIS6_S7_T1_EE, symObjAddr: 0x73D8, symBinAddr: 0x10000B454, symSize: 0x330 }
  - { offsetInCU: 0x17ED8, offset: 0x17ED8, size: 0x8, addend: 0x0, symName: __ZNSt3__1rsB8ue170006IcNS_11char_traitsIcEENS_9allocatorIcEEEERNS_13basic_istreamIT_T0_EES9_RNS_12basic_stringIS6_S7_T1_EE, symObjAddr: 0x81DC, symBinAddr: 0x10000C258, symSize: 0x1884 }
  - { offsetInCU: 0x17FB1, offset: 0x17FB1, size: 0x8, addend: 0x0, symName: __ZNSt3__1neB8ue170006IcNS_11char_traitsIcEENS_9allocatorIcEEEEbRKNS_12basic_stringIT_T0_T1_EEPKS6_, symObjAddr: 0x9A60, symBinAddr: 0x10000DADC, symSize: 0x7C }
  - { offsetInCU: 0x18009, offset: 0x18009, size: 0x8, addend: 0x0, symName: __ZNSt3__1lsB8ue170006IcNS_11char_traitsIcEENS_9allocatorIcEEEERNS_13basic_ostreamIT_T0_EES9_RKNS_12basic_stringIS6_S7_T1_EE, symObjAddr: 0x9FCC, symBinAddr: 0x10000E048, symSize: 0x12C }
  - { offsetInCU: 0x180A3, offset: 0x180A3, size: 0x8, addend: 0x0, symName: __ZNSt3__116forward_as_tupleB8ue170006IJNS_12basic_stringIcNS_11char_traitsIcEENS_9allocatorIcEEEEEEENS_5tupleIJDpOT_EEESA_, symObjAddr: 0x1DF1C, symBinAddr: 0x100021F98, symSize: 0x244 }
  - { offsetInCU: 0x180DD, offset: 0x180DD, size: 0x8, addend: 0x0, symName: __ZNSt3__116forward_as_tupleB8ue170006IJEEENS_5tupleIJDpOT_EEES4_, symObjAddr: 0x1E160, symBinAddr: 0x1000221DC, symSize: 0x4 }
  - { offsetInCU: 0x18101, offset: 0x18101, size: 0x8, addend: 0x0, symName: __ZNSt3__116__constrain_hashB8ue170006Emm, symObjAddr: 0x1E650, symBinAddr: 0x1000226CC, symSize: 0xDC }
  - { offsetInCU: 0x1813B, offset: 0x1813B, size: 0x8, addend: 0x0, symName: __ZNSt3__13maxB8ue170006ImEERKT_S3_S3_, symObjAddr: 0x1FA30, symBinAddr: 0x100023AAC, symSize: 0x104 }
  - { offsetInCU: 0x1817E, offset: 0x1817E, size: 0x8, addend: 0x0, symName: __ZNSt3__116__is_hash_power2B8ue170006Em, symObjAddr: 0x1FB34, symBinAddr: 0x100023BB0, symSize: 0x50 }
  - { offsetInCU: 0x181AA, offset: 0x181AA, size: 0x8, addend: 0x0, symName: __ZNSt3__116__do_string_hashB8ue170006IPKcEEmT_S3_, symObjAddr: 0x206DC, symBinAddr: 0x100024758, symSize: 0x1EC }
  - { offsetInCU: 0x181F2, offset: 0x181F2, size: 0x8, addend: 0x0, symName: __ZNSt3__110__loadwordB8ue170006ImEET_PKv, symObjAddr: 0x23F48, symBinAddr: 0x100027FC4, symSize: 0x214 }
  - { offsetInCU: 0x1823A, offset: 0x1823A, size: 0x8, addend: 0x0, symName: __ZNSt3__14swapB8ue170006ImEENS_9enable_ifIXaasr21is_move_constructibleIT_EE5valuesr18is_move_assignableIS2_EE5valueEvE4typeERS2_S5_, symObjAddr: 0x249DC, symBinAddr: 0x100028A58, symSize: 0x1C0 }
  - { offsetInCU: 0x1828B, offset: 0x1828B, size: 0x8, addend: 0x0, symName: __ZNSt3__110__loadwordB8ue170006IjEET_PKv, symObjAddr: 0x24CE8, symBinAddr: 0x100028D64, symSize: 0x240 }
  - { offsetInCU: 0x182D3, offset: 0x182D3, size: 0x8, addend: 0x0, symName: __ZNSt3__112__to_addressB8ue170006IKcEEPT_S3_, symObjAddr: 0x25558, symBinAddr: 0x1000295D4, symSize: 0x14 }
  - { offsetInCU: 0x1833B, offset: 0x1833B, size: 0x8, addend: 0x0, symName: __ZNSt3__1eqB8ue170006INS_9allocatorIcEEEEbRKNS_12basic_stringIcNS_11char_traitsIcEET_EES9_, symObjAddr: 0x26C8C, symBinAddr: 0x10002AD08, symSize: 0x458 }
  - { offsetInCU: 0x183AE, offset: 0x183AE, size: 0x8, addend: 0x0, symName: __ZNSt3__17launderB8ue170006IKNS_4pairIKNS_12basic_stringIcNS_11char_traitsIcEENS_9allocatorIcEEEE4UserEEEEPT_SD_, symObjAddr: 0x27118, symBinAddr: 0x10002B194, symSize: 0x24 }
  - { offsetInCU: 0x183E5, offset: 0x183E5, size: 0x8, addend: 0x0, symName: __ZNSt3__19__launderB8ue170006IKNS_4pairIKNS_12basic_stringIcNS_11char_traitsIcEENS_9allocatorIcEEEE4UserEEEEPT_SD_, symObjAddr: 0x2713C, symBinAddr: 0x10002B1B8, symSize: 0x14 }
  - { offsetInCU: 0x1846D, offset: 0x1846D, size: 0x8, addend: 0x0, symName: __ZNSt3__117__libcpp_allocateB8ue170006Emm, symObjAddr: 0x278F0, symBinAddr: 0x10002B96C, symSize: 0x60 }
  - { offsetInCU: 0x184C7, offset: 0x184C7, size: 0x8, addend: 0x0, symName: __ZNSt3__124__is_overaligned_for_newB8ue170006Em, symObjAddr: 0x279A8, symBinAddr: 0x10002BA24, symSize: 0x20 }
  - { offsetInCU: 0x184F5, offset: 0x184F5, size: 0x8, addend: 0x0, symName: __ZNSt3__121__libcpp_operator_newB8ue170006IJmSt11align_val_tEEEPvDpT_, symObjAddr: 0x279C8, symBinAddr: 0x10002BA44, symSize: 0x6C }
  - { offsetInCU: 0x18542, offset: 0x18542, size: 0x8, addend: 0x0, symName: __ZNSt3__121__libcpp_operator_newB8ue170006IJmEEEPvDpT_, symObjAddr: 0x27A34, symBinAddr: 0x10002BAB0, symSize: 0x24 }
  - { offsetInCU: 0x18586, offset: 0x18586, size: 0x8, addend: 0x0, symName: __ZNSt3__13getB8ue170006ILm0EJONS_12basic_stringIcNS_11char_traitsIcEENS_9allocatorIcEEEEEEERNS_13tuple_elementIXT_ENS_5tupleIJDpT0_EEEE4typeERSC_, symObjAddr: 0x2899C, symBinAddr: 0x10002CA18, symSize: 0xE0 }
  - { offsetInCU: 0x185C9, offset: 0x185C9, size: 0x8, addend: 0x0, symName: __ZNSt3__112__to_addressB8ue170006I11TransactionEEPT_S3_, symObjAddr: 0x2A6D8, symBinAddr: 0x10002E754, symSize: 0x14 }
  - { offsetInCU: 0x185FE, offset: 0x185FE, size: 0x8, addend: 0x0, symName: __ZNSt3__119__libcpp_deallocateB8ue170006EPvmm, symObjAddr: 0x2AB60, symBinAddr: 0x10002EBDC, symSize: 0x60 }
  - { offsetInCU: 0x18663, offset: 0x18663, size: 0x8, addend: 0x0, symName: __ZNSt3__127__do_deallocate_handle_sizeB8ue170006IJSt11align_val_tEEEvPvmDpT_, symObjAddr: 0x2ABC0, symBinAddr: 0x10002EC3C, symSize: 0x30 }
  - { offsetInCU: 0x186B6, offset: 0x186B6, size: 0x8, addend: 0x0, symName: __ZNSt3__127__do_deallocate_handle_sizeB8ue170006IJEEEvPvmDpT_, symObjAddr: 0x2ABF0, symBinAddr: 0x10002EC6C, symSize: 0x28 }
  - { offsetInCU: 0x186F4, offset: 0x186F4, size: 0x8, addend: 0x0, symName: __ZNSt3__124__libcpp_operator_deleteB8ue170006IJPvSt11align_val_tEEEvDpT_, symObjAddr: 0x2AC18, symBinAddr: 0x10002EC94, symSize: 0x2C }
  - { offsetInCU: 0x1873D, offset: 0x1873D, size: 0x8, addend: 0x0, symName: __ZNSt3__124__libcpp_operator_deleteB8ue170006IJPvEEEvDpT_, symObjAddr: 0x2AC44, symBinAddr: 0x10002ECC0, symSize: 0x24 }
  - { offsetInCU: 0x187A5, offset: 0x187A5, size: 0x8, addend: 0x0, symName: __ZNSt3__116__next_hash_pow2B8ue170006Em, symObjAddr: 0x2EA58, symBinAddr: 0x100032AD4, symSize: 0xCC }
  - { offsetInCU: 0x187ED, offset: 0x187ED, size: 0x8, addend: 0x0, symName: __ZNSt3__112__libcpp_clzB8ue170006Em, symObjAddr: 0x2FA58, symBinAddr: 0x100033AD4, symSize: 0x1C }
  - { offsetInCU: 0x18819, offset: 0x18819, size: 0x8, addend: 0x0, symName: __ZNSt3__13maxB8ue170006ImNS_6__lessIvvEEEERKT_S5_S5_T0_, symObjAddr: 0x2FA74, symBinAddr: 0x100033AF0, symSize: 0x2C0 }
  - { offsetInCU: 0x18915, offset: 0x18915, size: 0x8, addend: 0x0, symName: __ZNSt3__17launderB8ue170006INS_4pairIKNS_12basic_stringIcNS_11char_traitsIcEENS_9allocatorIcEEEE4UserEEEEPT_SC_, symObjAddr: 0x31110, symBinAddr: 0x10003518C, symSize: 0x24 }
  - { offsetInCU: 0x1894C, offset: 0x1894C, size: 0x8, addend: 0x0, symName: __ZNSt3__19__launderB8ue170006INS_4pairIKNS_12basic_stringIcNS_11char_traitsIcEENS_9allocatorIcEEEE4UserEEEEPT_SC_, symObjAddr: 0x31134, symBinAddr: 0x1000351B0, symSize: 0x14 }
  - { offsetInCU: 0x18983, offset: 0x18983, size: 0x8, addend: 0x0, symName: __ZNSt3__1neB8ue170006ERKNS_21__hash_const_iteratorIPNS_11__hash_nodeINS_12basic_stringIcNS_11char_traitsIcEENS_9allocatorIcEEEEPvEEEESD_, symObjAddr: 0x33D9C, symBinAddr: 0x100037E18, symSize: 0xC4 }
  - { offsetInCU: 0x189C0, offset: 0x189C0, size: 0x8, addend: 0x0, symName: __ZNSt3__1eqB8ue170006ERKNS_21__hash_const_iteratorIPNS_11__hash_nodeINS_12basic_stringIcNS_11char_traitsIcEENS_9allocatorIcEEEEPvEEEESD_, symObjAddr: 0x35634, symBinAddr: 0x1000396B0, symSize: 0x114 }
  - { offsetInCU: 0x18A1B, offset: 0x18A1B, size: 0x8, addend: 0x0, symName: __ZNSt3__18distanceB8ue170006IP11TransactionEENS_15iterator_traitsIT_E15difference_typeES4_S4_, symObjAddr: 0x3D418, symBinAddr: 0x100041494, symSize: 0x2C }
  - { offsetInCU: 0x18A5E, offset: 0x18A5E, size: 0x8, addend: 0x0, symName: __ZNSt3__14nextB8ue170006IP11TransactionEENS_9enable_ifIXsr29__has_input_iterator_categoryIT_EE5valueES4_E4typeES4_NS_15iterator_traitsIS4_E15difference_typeE, symObjAddr: 0x3D444, symBinAddr: 0x1000414C0, symSize: 0x238 }
  - { offsetInCU: 0x18AA6, offset: 0x18AA6, size: 0x8, addend: 0x0, symName: __ZNSt3__14copyB8ue170006IP11TransactionS2_EET0_T_S4_S3_, symObjAddr: 0x3D67C, symBinAddr: 0x1000416F8, symSize: 0x2B4 }
  - { offsetInCU: 0x18B03, offset: 0x18B03, size: 0x8, addend: 0x0, symName: __ZNSt3__16__copyB8ue170006INS_17_ClassicAlgPolicyEP11TransactionS3_S3_EENS_4pairIT0_T2_EES5_T1_S6_, symObjAddr: 0x3DDC4, symBinAddr: 0x100041E40, symSize: 0x22C }
  - { offsetInCU: 0x18B72, offset: 0x18B72, size: 0x8, addend: 0x0, symName: __ZNSt3__121__convert_to_integralB8ue170006El, symObjAddr: 0x3ED90, symBinAddr: 0x100042E0C, symSize: 0x14 }
  - { offsetInCU: 0x18B9E, offset: 0x18B9E, size: 0x8, addend: 0x0, symName: __ZNSt3__19__advanceB8ue170006IP11TransactionEEvRT_NS_15iterator_traitsIS3_E15difference_typeENS_26random_access_iterator_tagE, symObjAddr: 0x3EDA4, symBinAddr: 0x100042E20, symSize: 0x1A4 }
  - { offsetInCU: 0x18BE7, offset: 0x18BE7, size: 0x8, addend: 0x0, symName: __ZNSt3__130__uninitialized_allocator_copyB8ue170006INS_9allocatorI11TransactionEEPS2_S4_S4_EET2_RT_T0_T1_S5_, symObjAddr: 0x3EFD0, symBinAddr: 0x10004304C, symSize: 0x334 }
  - { offsetInCU: 0x18C8D, offset: 0x18C8D, size: 0x8, addend: 0x0, symName: __ZNSt3__114__unwrap_rangeB8ue170006IP11TransactionS2_EENS_4pairIT0_S4_EET_S6_, symObjAddr: 0x3FBC8, symBinAddr: 0x100043C44, symSize: 0x350 }
  - { offsetInCU: 0x18CDB, offset: 0x18CDB, size: 0x8, addend: 0x0, symName: __ZNSt3__135__uninitialized_allocator_copy_implB8ue170006INS_9allocatorI11TransactionEEPS2_S4_S4_EET2_RT_T0_T1_S5_, symObjAddr: 0x3FF18, symBinAddr: 0x100043F94, symSize: 0x6EC }
  - { offsetInCU: 0x18D87, offset: 0x18D87, size: 0x8, addend: 0x0, symName: __ZNSt3__113__unwrap_iterB8ue170006IP11TransactionNS_18__unwrap_iter_implIS2_Lb1EEELi0EEEDTclsrT0_8__unwrapclsr3stdE7declvalIT_EEEES6_, symObjAddr: 0x40604, symBinAddr: 0x100044680, symSize: 0x24 }
  - { offsetInCU: 0x18DCB, offset: 0x18DCB, size: 0x8, addend: 0x0, symName: __ZNSt3__113__rewrap_iterB8ue170006IP11TransactionS2_NS_18__unwrap_iter_implIS2_Lb1EEEEET_S5_T0_, symObjAddr: 0x40628, symBinAddr: 0x1000446A4, symSize: 0x48 }
  - { offsetInCU: 0x18E20, offset: 0x18E20, size: 0x8, addend: 0x0, symName: __ZNSt3__19make_pairB8ue170006IP11TransactionS2_EENS_4pairINS_18__unwrap_ref_decayIT_E4typeENS4_IT0_E4typeEEEOS5_OS8_, symObjAddr: 0x40670, symBinAddr: 0x1000446EC, symSize: 0x2A0 }
  - { offsetInCU: 0x18F45, offset: 0x18F45, size: 0x8, addend: 0x0, symName: __ZNSt3__122__make_exception_guardB8ue170006INS_29_AllocatorDestroyRangeReverseINS_9allocatorI11TransactionEEPS3_EEEENS_28__exception_guard_exceptionsIT_EES8_, symObjAddr: 0x40BA8, symBinAddr: 0x100044C24, symSize: 0x23C }
  - { offsetInCU: 0x18F7C, offset: 0x18F7C, size: 0x8, addend: 0x0, symName: __ZNSt3__119__allocator_destroyB8ue170006INS_9allocatorI11TransactionEENS_16reverse_iteratorIPS2_EES6_EEvRT_T0_T1_, symObjAddr: 0x41E1C, symBinAddr: 0x100045E98, symSize: 0x2DC }
  - { offsetInCU: 0x18FE8, offset: 0x18FE8, size: 0x8, addend: 0x0, symName: __ZNSt3__1neB8ue170006IP11TransactionS2_EEbRKNS_16reverse_iteratorIT_EERKNS3_IT0_EE, symObjAddr: 0x42178, symBinAddr: 0x1000461F4, symSize: 0x9C }
  - { offsetInCU: 0x19034, offset: 0x19034, size: 0x8, addend: 0x0, symName: __ZNSt3__112__to_addressB8ue170006INS_16reverse_iteratorIP11TransactionEEvEEu7__decayIDTclsr19__to_address_helperIT_EE6__callclsr3stdE7declvalIRKS5_EEEEES7_, symObjAddr: 0x42214, symBinAddr: 0x100046290, symSize: 0x6C }
  - { offsetInCU: 0x190E7, offset: 0x190E7, size: 0x8, addend: 0x0, symName: __ZNSt3__123__dispatch_copy_or_moveB8ue170006INS_17_ClassicAlgPolicyENS_11__copy_loopIS1_EENS_14__copy_trivialEP11TransactionS6_S6_EENS_4pairIT2_T4_EES8_T3_S9_, symObjAddr: 0x430B8, symBinAddr: 0x100047134, symSize: 0x22C }
  - { offsetInCU: 0x19168, offset: 0x19168, size: 0x8, addend: 0x0, symName: __ZNSt3__121__unwrap_and_dispatchB8ue170006INS_10__overloadINS_11__copy_loopINS_17_ClassicAlgPolicyEEENS_14__copy_trivialEEEP11TransactionS8_S8_Li0EEENS_4pairIT0_T2_EESA_T1_SB_, symObjAddr: 0x432E4, symBinAddr: 0x100047360, symSize: 0x634 }
  - { offsetInCU: 0x1925C, offset: 0x1925C, size: 0x8, addend: 0x0, symName: __ZNSt3__114__rewrap_rangeB8ue170006IP11TransactionS2_EET_S3_T0_, symObjAddr: 0x43F84, symBinAddr: 0x100048000, symSize: 0x2C }
  - { offsetInCU: 0x192A8, offset: 0x192A8, size: 0x8, addend: 0x0, symName: __ZNSt3__119__allocate_at_leastB8ue170006INS_9allocatorI11TransactionEEEENS_19__allocation_resultINS_16allocator_traitsIT_E7pointerEEERS6_m, symObjAddr: 0x44B64, symBinAddr: 0x100048BE0, symSize: 0x28C }
  - { offsetInCU: 0x192ED, offset: 0x192ED, size: 0x8, addend: 0x0, symName: __ZNSt3__13minB8ue170006ImEERKT_S3_S3_, symObjAddr: 0x45168, symBinAddr: 0x1000491E4, symSize: 0x104 }
  - { offsetInCU: 0x1951A, offset: 0x1951A, size: 0x8, addend: 0x0, symName: __ZNSt3__13minB8ue170006ImNS_6__lessIvvEEEERKT_S5_S5_T0_, symObjAddr: 0x45388, symBinAddr: 0x100049404, symSize: 0x2C0 }
  - { offsetInCU: 0x1957B, offset: 0x1957B, size: 0x8, addend: 0x0, symName: __ZNSt3__120__throw_length_errorB8ue170006EPKc, symObjAddr: 0x4581C, symBinAddr: 0x100049898, symSize: 0xB4 }
  - { offsetInCU: 0x195A5, offset: 0x195A5, size: 0x8, addend: 0x0, symName: __ZNSt3__110__distanceB8ue170006IP11TransactionEENS_15iterator_traitsIT_E15difference_typeES4_S4_NS_26random_access_iterator_tagE, symObjAddr: 0x45B48, symBinAddr: 0x100049BC4, symSize: 0x28 }
  - { offsetInCU: 0x19610, offset: 0x19610, size: 0x8, addend: 0x0, symName: __ZNSt3__122__make_exception_guardB8ue170006INS_6vectorI11TransactionNS_9allocatorIS2_EEE16__destroy_vectorEEENS_28__exception_guard_exceptionsIT_EES8_, symObjAddr: 0x4E204, symBinAddr: 0x100052280, symSize: 0x2BC }
  - { offsetInCU: 0x19649, offset: 0x19649, size: 0x8, addend: 0x0, symName: __ZNSt3__116forward_as_tupleB8ue170006IJRKNS_12basic_stringIcNS_11char_traitsIcEENS_9allocatorIcEEEEEEENS_5tupleIJDpOT_EEESC_, symObjAddr: 0x515C8, symBinAddr: 0x100055644, symSize: 0x244 }
  - { offsetInCU: 0x19683, offset: 0x19683, size: 0x8, addend: 0x0, symName: __ZNSt3__13getB8ue170006ILm0EJRKNS_12basic_stringIcNS_11char_traitsIcEENS_9allocatorIcEEEEEEERNS_13tuple_elementIXT_ENS_5tupleIJDpT0_EEEE4typeERSD_, symObjAddr: 0x5292C, symBinAddr: 0x1000569A8, symSize: 0xE0 }
  - { offsetInCU: 0x196DB, offset: 0x196DB, size: 0x8, addend: 0x0, symName: __ZNSt3__1eqB8ue170006ERKNS_15__hash_iteratorIPNS_11__hash_nodeINS_12basic_stringIcNS_11char_traitsIcEENS_9allocatorIcEEEEPvEEEESD_, symObjAddr: 0x5565C, symBinAddr: 0x1000596D8, symSize: 0x114 }
  - { offsetInCU: 0x19718, offset: 0x19718, size: 0x8, addend: 0x0, symName: __ZNSt3__1eqB8ue170006ERKNS_19__hash_map_iteratorINS_15__hash_iteratorIPNS_11__hash_nodeINS_17__hash_value_typeINS_12basic_stringIcNS_11char_traitsIcEENS_9allocatorIcEEEE4UserEEPvEEEEEESI_, symObjAddr: 0x56F78, symBinAddr: 0x10005AFF4, symSize: 0xC0 }
  - { offsetInCU: 0x19755, offset: 0x19755, size: 0x8, addend: 0x0, symName: __ZNSt3__1eqB8ue170006ERKNS_15__hash_iteratorIPNS_11__hash_nodeINS_17__hash_value_typeINS_12basic_stringIcNS_11char_traitsIcEENS_9allocatorIcEEEE4UserEEPvEEEESG_, symObjAddr: 0x57DD8, symBinAddr: 0x10005BE54, symSize: 0x114 }
  - { offsetInCU: 0x19792, offset: 0x19792, size: 0x8, addend: 0x0, symName: __ZNSt3__19push_heapB8ue170006INS_11__wrap_iterIP11TransactionEE18TransactionCompareEEvT_S6_T0_, symObjAddr: 0x597EC, symBinAddr: 0x10005D868, symSize: 0x36C }
  - { offsetInCU: 0x197F4, offset: 0x197F4, size: 0x8, addend: 0x0, symName: __ZNSt3__142__uninitialized_allocator_move_if_noexceptB8ue170006INS_9allocatorI11TransactionEENS_16reverse_iteratorIPS2_EES6_S6_EET2_RT_T0_T1_S7_, symObjAddr: 0x5C67C, symBinAddr: 0x1000606F8, symSize: 0x5C8 }
  - { offsetInCU: 0x198A9, offset: 0x198A9, size: 0x8, addend: 0x0, symName: __ZNSt3__14swapB8ue170006IP11TransactionEENS_9enable_ifIXaasr21is_move_constructibleIT_EE5valuesr18is_move_assignableIS4_EE5valueEvE4typeERS4_S7_, symObjAddr: 0x5CC44, symBinAddr: 0x100060CC0, symSize: 0x1C0 }
  - { offsetInCU: 0x198FA, offset: 0x198FA, size: 0x8, addend: 0x0, symName: __ZNSt3__122__make_exception_guardB8ue170006INS_29_AllocatorDestroyRangeReverseINS_9allocatorI11TransactionEENS_16reverse_iteratorIPS3_EEEEEENS_28__exception_guard_exceptionsIT_EESA_, symObjAddr: 0x5CE04, symBinAddr: 0x100060E80, symSize: 0x23C }
  - { offsetInCU: 0x19931, offset: 0x19931, size: 0x8, addend: 0x0, symName: __ZNSt3__119__allocator_destroyB8ue170006INS_9allocatorI11TransactionEENS_16reverse_iteratorINS4_IPS2_EEEES7_EEvRT_T0_T1_, symObjAddr: 0x5E1A0, symBinAddr: 0x10006221C, symSize: 0x1A4 }
  - { offsetInCU: 0x19996, offset: 0x19996, size: 0x8, addend: 0x0, symName: __ZNSt3__1neB8ue170006INS_16reverse_iteratorIP11TransactionEES4_EEbRKNS1_IT_EERKNS1_IT0_EE, symObjAddr: 0x5E5E0, symBinAddr: 0x10006265C, symSize: 0x324 }
  - { offsetInCU: 0x199E4, offset: 0x199E4, size: 0x8, addend: 0x0, symName: __ZNSt3__112__to_addressB8ue170006INS_16reverse_iteratorINS1_IP11TransactionEEEEvEEu7__decayIDTclsr19__to_address_helperIT_EE6__callclsr3stdE7declvalIRKS6_EEEEES8_, symObjAddr: 0x5E904, symBinAddr: 0x100062980, symSize: 0x6C }
  - { offsetInCU: 0x19A44, offset: 0x19A44, size: 0x8, addend: 0x0, symName: __ZNSt3__111__push_heapB8ue170006INS_17_ClassicAlgPolicyENS_11__wrap_iterIP11TransactionEE18TransactionCompareEEvT0_S7_RT1_, symObjAddr: 0x5FCBC, symBinAddr: 0x100063D38, symSize: 0x3A0 }
  - { offsetInCU: 0x19ABB, offset: 0x19ABB, size: 0x8, addend: 0x0, symName: __ZNSt3__1miB8ue170006IP11TransactionS2_EEDTmicldtfp_4baseEcldtfp0_4baseEERKNS_11__wrap_iterIT_EERKNS4_IT0_EE, symObjAddr: 0x6005C, symBinAddr: 0x1000640D8, symSize: 0x9C }
  - { offsetInCU: 0x19B07, offset: 0x19B07, size: 0x8, addend: 0x0, symName: __ZNSt3__19__sift_upB8ue170006INS_17_ClassicAlgPolicyER18TransactionCompareNS_11__wrap_iterIP11TransactionEEEEvT1_S8_OT0_NS_15iterator_traitsIS8_E15difference_typeE, symObjAddr: 0x600F8, symBinAddr: 0x100064174, symSize: 0x988 }
  - { offsetInCU: 0x19C24, offset: 0x19C24, size: 0x8, addend: 0x0, symName: __ZNSt3__1eqB8ue170006IcNS_11char_traitsIcEENS_9allocatorIcEEEEbRKNS_12basic_stringIT_T0_T1_EEPKS6_, symObjAddr: 0x624E8, symBinAddr: 0x100066564, symSize: 0x120 }
  - { offsetInCU: 0x19C8B, offset: 0x19C8B, size: 0x8, addend: 0x0, symName: __ZNSt3__118__constexpr_strlenB8ue170006EPKc, symObjAddr: 0x632CC, symBinAddr: 0x100067348, symSize: 0x24 }
  - { offsetInCU: 0x19CB7, offset: 0x19CB7, size: 0x8, addend: 0x0, symName: __ZNSt3__18pop_heapB8ue170006INS_11__wrap_iterIP11TransactionEE18TransactionCompareEEvT_S6_T0_, symObjAddr: 0x632F0, symBinAddr: 0x10006736C, symSize: 0x388 }
  - { offsetInCU: 0x19D28, offset: 0x19D28, size: 0x8, addend: 0x0, symName: __ZNSt3__110__pop_heapB8ue170006INS_17_ClassicAlgPolicyE18TransactionCompareNS_11__wrap_iterIP11TransactionEEEEvT1_S7_RT0_NS_15iterator_traitsIS7_E15difference_typeE, symObjAddr: 0x637C8, symBinAddr: 0x100067844, symSize: 0x874 }
  - { offsetInCU: 0x19DE4, offset: 0x19DE4, size: 0x8, addend: 0x0, symName: __ZNSt3__1eqB8ue170006IP11TransactionEEbRKNS_11__wrap_iterIT_EES7_, symObjAddr: 0x6477C, symBinAddr: 0x1000687F8, symSize: 0x9C }
  - { offsetInCU: 0x19E27, offset: 0x19E27, size: 0x8, addend: 0x0, symName: __ZNSt3__1lsB8ue170006INS_11char_traitsIcEEEERNS_13basic_ostreamIcT_EES6_c, symObjAddr: 0x64C50, symBinAddr: 0x100068CCC, symSize: 0x2AC }
  - { offsetInCU: 0x19E72, offset: 0x19E72, size: 0x8, addend: 0x0, symName: __ZNSt3__116__pad_and_outputB8ue170006IcNS_11char_traitsIcEEEENS_19ostreambuf_iteratorIT_T0_EES6_PKS4_S8_S8_RNS_8ios_baseES4_, symObjAddr: 0x6603C, symBinAddr: 0x10006A0B8, symSize: 0xB88 }
  - { offsetInCU: 0x19F4F, offset: 0x19F4F, size: 0x8, addend: 0x0, symName: __ZNSt3__112__to_addressB8ue170006IcEEPT_S2_, symObjAddr: 0x67E90, symBinAddr: 0x10006BF0C, symSize: 0x14 }
  - { offsetInCU: 0x19FB7, offset: 0x19FB7, size: 0x8, addend: 0x0, symName: __ZNSt3__19use_facetB8ue170006INS_5ctypeIcEEEERKT_RKNS_6localeE, symObjAddr: 0x68D10, symBinAddr: 0x10006CD8C, symSize: 0x188 }
  - { offsetInCU: 0x1A395, offset: 0x1A395, size: 0x8, addend: 0x0, symName: __ZNSt3__1plB8ue170006IcNS_11char_traitsIcEENS_9allocatorIcEEEENS_12basic_stringIT_T0_T1_EEOS9_RKS9_, symObjAddr: 0x6978C, symBinAddr: 0x10006D808, symSize: 0x13C }
  - { offsetInCU: 0x1A3ED, offset: 0x1A3ED, size: 0x8, addend: 0x0, symName: __ZNSt3__1plB8ue170006IcNS_11char_traitsIcEENS_9allocatorIcEEEENS_12basic_stringIT_T0_T1_EEOS9_PKS6_, symObjAddr: 0x698C8, symBinAddr: 0x10006D944, symSize: 0xF4 }
  - { offsetInCU: 0x1A445, offset: 0x1A445, size: 0x8, addend: 0x0, symName: __ZNSt3__122__make_exception_guardB8ue170006INS_6vectorINS_12basic_stringIcNS_11char_traitsIcEENS_9allocatorIcEEEENS5_IS7_EEE16__destroy_vectorEEENS_28__exception_guard_exceptionsIT_EESC_, symObjAddr: 0x6A418, symBinAddr: 0x10006E494, symSize: 0x2BC }
  - { offsetInCU: 0x1A47E, offset: 0x1A47E, size: 0x8, addend: 0x0, symName: __ZNSt3__119__allocate_at_leastB8ue170006INS_9allocatorINS_12basic_stringIcNS_11char_traitsIcEENS1_IcEEEEEEEENS_19__allocation_resultINS_16allocator_traitsIT_E7pointerEEERSA_m, symObjAddr: 0x6C42C, symBinAddr: 0x1000704A8, symSize: 0x28C }
  - { offsetInCU: 0x1A4C3, offset: 0x1A4C3, size: 0x8, addend: 0x0, symName: __ZNSt3__112__to_addressB8ue170006INS_12basic_stringIcNS_11char_traitsIcEENS_9allocatorIcEEEEEEPT_S8_, symObjAddr: 0x6D594, symBinAddr: 0x100071610, symSize: 0x14 }
  - { offsetInCU: 0x1A4F8, offset: 0x1A4F8, size: 0x8, addend: 0x0, symName: __ZNSt3__130__uninitialized_allocator_copyB8ue170006INS_9allocatorINS_12basic_stringIcNS_11char_traitsIcEENS1_IcEEEEEEPKS6_S9_PS6_EET2_RT_T0_T1_SB_, symObjAddr: 0x6D900, symBinAddr: 0x10007197C, symSize: 0x334 }
  - { offsetInCU: 0x1A59E, offset: 0x1A59E, size: 0x8, addend: 0x0, symName: __ZNSt3__114__unwrap_rangeB8ue170006IPKNS_12basic_stringIcNS_11char_traitsIcEENS_9allocatorIcEEEES8_EENS_4pairIT0_SA_EET_SC_, symObjAddr: 0x6E5F0, symBinAddr: 0x10007266C, symSize: 0x350 }
  - { offsetInCU: 0x1A5EC, offset: 0x1A5EC, size: 0x8, addend: 0x0, symName: __ZNSt3__135__uninitialized_allocator_copy_implB8ue170006INS_9allocatorINS_12basic_stringIcNS_11char_traitsIcEENS1_IcEEEEEEPKS6_S9_PS6_EET2_RT_T0_T1_SB_, symObjAddr: 0x6E940, symBinAddr: 0x1000729BC, symSize: 0x6EC }
  - { offsetInCU: 0x1A698, offset: 0x1A698, size: 0x8, addend: 0x0, symName: __ZNSt3__113__unwrap_iterB8ue170006IPNS_12basic_stringIcNS_11char_traitsIcEENS_9allocatorIcEEEENS_18__unwrap_iter_implIS7_Lb1EEELi0EEEDTclsrT0_8__unwrapclsr3stdE7declvalIT_EEEESB_, symObjAddr: 0x6F02C, symBinAddr: 0x1000730A8, symSize: 0x24 }
  - { offsetInCU: 0x1A6DC, offset: 0x1A6DC, size: 0x8, addend: 0x0, symName: __ZNSt3__113__rewrap_iterB8ue170006IPNS_12basic_stringIcNS_11char_traitsIcEENS_9allocatorIcEEEES7_NS_18__unwrap_iter_implIS7_Lb1EEEEET_SA_T0_, symObjAddr: 0x6F050, symBinAddr: 0x1000730CC, symSize: 0x48 }
  - { offsetInCU: 0x1A731, offset: 0x1A731, size: 0x8, addend: 0x0, symName: __ZNSt3__19make_pairB8ue170006IPKNS_12basic_stringIcNS_11char_traitsIcEENS_9allocatorIcEEEES8_EENS_4pairINS_18__unwrap_ref_decayIT_E4typeENSA_IT0_E4typeEEEOSB_OSE_, symObjAddr: 0x6F098, symBinAddr: 0x100073114, symSize: 0x2A0 }
  - { offsetInCU: 0x1A782, offset: 0x1A782, size: 0x8, addend: 0x0, symName: __ZNSt3__113__unwrap_iterB8ue170006IPKNS_12basic_stringIcNS_11char_traitsIcEENS_9allocatorIcEEEENS_18__unwrap_iter_implIS8_Lb1EEELi0EEEDTclsrT0_8__unwrapclsr3stdE7declvalIT_EEEESC_, symObjAddr: 0x6F338, symBinAddr: 0x1000733B4, symSize: 0x24 }
  - { offsetInCU: 0x1A8ED, offset: 0x1A8ED, size: 0x8, addend: 0x0, symName: __ZNSt3__112__to_addressB8ue170006IKNS_12basic_stringIcNS_11char_traitsIcEENS_9allocatorIcEEEEEEPT_S9_, symObjAddr: 0x6F618, symBinAddr: 0x100073694, symSize: 0x14 }
  - { offsetInCU: 0x1A922, offset: 0x1A922, size: 0x8, addend: 0x0, symName: __ZNSt3__122__make_exception_guardB8ue170006INS_29_AllocatorDestroyRangeReverseINS_9allocatorINS_12basic_stringIcNS_11char_traitsIcEENS2_IcEEEEEEPS7_EEEENS_28__exception_guard_exceptionsIT_EESC_, symObjAddr: 0x6F62C, symBinAddr: 0x1000736A8, symSize: 0x23C }
  - { offsetInCU: 0x1A959, offset: 0x1A959, size: 0x8, addend: 0x0, symName: __ZNSt3__119__allocator_destroyB8ue170006INS_9allocatorINS_12basic_stringIcNS_11char_traitsIcEENS1_IcEEEEEENS_16reverse_iteratorIPS6_EESA_EEvRT_T0_T1_, symObjAddr: 0x704D0, symBinAddr: 0x10007454C, symSize: 0x2DC }
  - { offsetInCU: 0x1A9C5, offset: 0x1A9C5, size: 0x8, addend: 0x0, symName: __ZNSt3__1neB8ue170006IPNS_12basic_stringIcNS_11char_traitsIcEENS_9allocatorIcEEEES7_EEbRKNS_16reverse_iteratorIT_EERKNS8_IT0_EE, symObjAddr: 0x7082C, symBinAddr: 0x1000748A8, symSize: 0x9C }
  - { offsetInCU: 0x1AA11, offset: 0x1AA11, size: 0x8, addend: 0x0, symName: __ZNSt3__112__to_addressB8ue170006INS_16reverse_iteratorIPNS_12basic_stringIcNS_11char_traitsIcEENS_9allocatorIcEEEEEEvEEu7__decayIDTclsr19__to_address_helperIT_EE6__callclsr3stdE7declvalIRKSA_EEEEESC_, symObjAddr: 0x708F4, symBinAddr: 0x100074970, symSize: 0x6C }
  - { offsetInCU: 0x1AAC4, offset: 0x1AAC4, size: 0x8, addend: 0x0, symName: __ZNSt3__1plB8ue170006IcNS_11char_traitsIcEENS_9allocatorIcEEEENS_12basic_stringIT_T0_T1_EEPKS6_OS9_, symObjAddr: 0x736F8, symBinAddr: 0x100077774, symSize: 0xF8 }
  - { offsetInCU: 0x1B110, offset: 0x1B110, size: 0x8, addend: 0x0, symName: __ZSt28__throw_bad_array_new_lengthB8ue170006v, symObjAddr: 0x27874, symBinAddr: 0x10002B8F0, symSize: 0x7C }
  - { offsetInCU: 0x1B13E, offset: 0x1B13E, size: 0x8, addend: 0x0, symName: _.str.49, symObjAddr: 0x79D80, symBinAddr: 0x10007E760, symSize: 0x0 }
  - { offsetInCU: 0x1B15B, offset: 0x1B15B, size: 0x8, addend: 0x0, symName: _.str.51, symObjAddr: 0xA13C0, symBinAddr: 0x10008C000, symSize: 0x0 }
  - { offsetInCU: 0x1B179, offset: 0x1B179, size: 0x8, addend: 0x0, symName: _.str.52, symObjAddr: 0x79DA0, symBinAddr: 0x10007E780, symSize: 0x0 }
  - { offsetInCU: 0x1B197, offset: 0x1B197, size: 0x8, addend: 0x0, symName: _.str.53, symObjAddr: 0x79E00, symBinAddr: 0x10007E7E0, symSize: 0x0 }
  - { offsetInCU: 0x1B1A9, offset: 0x1B1A9, size: 0x8, addend: 0x0, symName: _.str.54, symObjAddr: 0x79E20, symBinAddr: 0x10007E800, symSize: 0x0 }
  - { offsetInCU: 0x1B1C7, offset: 0x1B1C7, size: 0x8, addend: 0x0, symName: _.str.55, symObjAddr: 0x79E60, symBinAddr: 0x10007E840, symSize: 0x0 }
  - { offsetInCU: 0x1B1E5, offset: 0x1B1E5, size: 0x8, addend: 0x0, symName: _.str.56, symObjAddr: 0x79E80, symBinAddr: 0x10007E860, symSize: 0x0 }
  - { offsetInCU: 0x1B203, offset: 0x1B203, size: 0x8, addend: 0x0, symName: _.str.57, symObjAddr: 0x79F00, symBinAddr: 0x10007E8E0, symSize: 0x0 }
  - { offsetInCU: 0x1B215, offset: 0x1B215, size: 0x8, addend: 0x0, symName: _.str.58, symObjAddr: 0x79F40, symBinAddr: 0x10007E920, symSize: 0x0 }
  - { offsetInCU: 0x1B233, offset: 0x1B233, size: 0x8, addend: 0x0, symName: _.str.59, symObjAddr: 0x79FA0, symBinAddr: 0x10007E980, symSize: 0x0 }
  - { offsetInCU: 0x1B251, offset: 0x1B251, size: 0x8, addend: 0x0, symName: _.str.60, symObjAddr: 0x79FE0, symBinAddr: 0x10007E9C0, symSize: 0x0 }
  - { offsetInCU: 0x1B263, offset: 0x1B263, size: 0x8, addend: 0x0, symName: _.str.61, symObjAddr: 0x7A000, symBinAddr: 0x10007E9E0, symSize: 0x0 }
  - { offsetInCU: 0x1B275, offset: 0x1B275, size: 0x8, addend: 0x0, symName: _.str.62, symObjAddr: 0x7A020, symBinAddr: 0x10007EA00, symSize: 0x0 }
  - { offsetInCU: 0x1B287, offset: 0x1B287, size: 0x8, addend: 0x0, symName: _.str.63, symObjAddr: 0x7A040, symBinAddr: 0x10007EA20, symSize: 0x0 }
  - { offsetInCU: 0x1B299, offset: 0x1B299, size: 0x8, addend: 0x0, symName: _.str.68, symObjAddr: 0x7A060, symBinAddr: 0x10007EA40, symSize: 0x0 }
  - { offsetInCU: 0x1B2AB, offset: 0x1B2AB, size: 0x8, addend: 0x0, symName: _.str.69, symObjAddr: 0x7A080, symBinAddr: 0x10007EA60, symSize: 0x0 }
  - { offsetInCU: 0x1B2BD, offset: 0x1B2BD, size: 0x8, addend: 0x0, symName: _.str.70, symObjAddr: 0x7A0A0, symBinAddr: 0x10007EA80, symSize: 0x0 }
  - { offsetInCU: 0x1B2DB, offset: 0x1B2DB, size: 0x8, addend: 0x0, symName: _.str.71, symObjAddr: 0x7A100, symBinAddr: 0x10007EAE0, symSize: 0x0 }
  - { offsetInCU: 0x1B2F9, offset: 0x1B2F9, size: 0x8, addend: 0x0, symName: _.str.74, symObjAddr: 0x7A140, symBinAddr: 0x10007EB20, symSize: 0x0 }
  - { offsetInCU: 0x1B30B, offset: 0x1B30B, size: 0x8, addend: 0x0, symName: _.str.75, symObjAddr: 0x7A160, symBinAddr: 0x10007EB40, symSize: 0x0 }
  - { offsetInCU: 0x1B329, offset: 0x1B329, size: 0x8, addend: 0x0, symName: _.str.76, symObjAddr: 0x7A180, symBinAddr: 0x10007EB60, symSize: 0x0 }
  - { offsetInCU: 0x1B33B, offset: 0x1B33B, size: 0x8, addend: 0x0, symName: _.str.77, symObjAddr: 0x7A1A0, symBinAddr: 0x10007EB80, symSize: 0x0 }
  - { offsetInCU: 0x1B34D, offset: 0x1B34D, size: 0x8, addend: 0x0, symName: _.str.78, symObjAddr: 0x7A1C0, symBinAddr: 0x10007EBA0, symSize: 0x0 }
  - { offsetInCU: 0x1B35F, offset: 0x1B35F, size: 0x8, addend: 0x0, symName: _.str.79, symObjAddr: 0x7A1E0, symBinAddr: 0x10007EBC0, symSize: 0x0 }
  - { offsetInCU: 0x1B371, offset: 0x1B371, size: 0x8, addend: 0x0, symName: _.str.80, symObjAddr: 0x7A200, symBinAddr: 0x10007EBE0, symSize: 0x0 }
  - { offsetInCU: 0x1B383, offset: 0x1B383, size: 0x8, addend: 0x0, symName: _.str.81, symObjAddr: 0x7A240, symBinAddr: 0x10007EC20, symSize: 0x0 }
  - { offsetInCU: 0x1B395, offset: 0x1B395, size: 0x8, addend: 0x0, symName: _.str.82, symObjAddr: 0x7A260, symBinAddr: 0x10007EC40, symSize: 0x0 }
  - { offsetInCU: 0x1B3B3, offset: 0x1B3B3, size: 0x8, addend: 0x0, symName: _.str.89, symObjAddr: 0x7A2A0, symBinAddr: 0x10007EC80, symSize: 0x0 }
  - { offsetInCU: 0x1B3C5, offset: 0x1B3C5, size: 0x8, addend: 0x0, symName: _.str.90, symObjAddr: 0x7A2C0, symBinAddr: 0x10007ECA0, symSize: 0x0 }
  - { offsetInCU: 0x1B3D7, offset: 0x1B3D7, size: 0x8, addend: 0x0, symName: _.str.91, symObjAddr: 0x7A2E0, symBinAddr: 0x10007ECC0, symSize: 0x0 }
  - { offsetInCU: 0x1B3E9, offset: 0x1B3E9, size: 0x8, addend: 0x0, symName: _.str.92, symObjAddr: 0x7A300, symBinAddr: 0x10007ECE0, symSize: 0x0 }
  - { offsetInCU: 0x1B3FB, offset: 0x1B3FB, size: 0x8, addend: 0x0, symName: _.str.93, symObjAddr: 0x7A320, symBinAddr: 0x10007ED00, symSize: 0x0 }
  - { offsetInCU: 0x1B40D, offset: 0x1B40D, size: 0x8, addend: 0x0, symName: _.str.94, symObjAddr: 0x7A340, symBinAddr: 0x10007ED20, symSize: 0x0 }
  - { offsetInCU: 0x1B41F, offset: 0x1B41F, size: 0x8, addend: 0x0, symName: _.str.95, symObjAddr: 0x7A360, symBinAddr: 0x10007ED40, symSize: 0x0 }
  - { offsetInCU: 0x1B431, offset: 0x1B431, size: 0x8, addend: 0x0, symName: _.str.96, symObjAddr: 0x7A380, symBinAddr: 0x10007ED60, symSize: 0x0 }
  - { offsetInCU: 0x1B443, offset: 0x1B443, size: 0x8, addend: 0x0, symName: _.str.97, symObjAddr: 0x7A3C0, symBinAddr: 0x10007EDA0, symSize: 0x0 }
  - { offsetInCU: 0x1B455, offset: 0x1B455, size: 0x8, addend: 0x0, symName: _.str.99, symObjAddr: 0x7A400, symBinAddr: 0x10007EDE0, symSize: 0x0 }
  - { offsetInCU: 0x1B473, offset: 0x1B473, size: 0x8, addend: 0x0, symName: _.str.100, symObjAddr: 0x7A420, symBinAddr: 0x10007EE00, symSize: 0x0 }
  - { offsetInCU: 0x1B485, offset: 0x1B485, size: 0x8, addend: 0x0, symName: _.str.101, symObjAddr: 0x7A460, symBinAddr: 0x10007EE40, symSize: 0x0 }
  - { offsetInCU: 0x1B497, offset: 0x1B497, size: 0x8, addend: 0x0, symName: _.str.102, symObjAddr: 0x7A480, symBinAddr: 0x10007EE60, symSize: 0x0 }
  - { offsetInCU: 0x1B4A9, offset: 0x1B4A9, size: 0x8, addend: 0x0, symName: _.str.103, symObjAddr: 0x7A4C0, symBinAddr: 0x10007EEA0, symSize: 0x0 }
  - { offsetInCU: 0x1B4BB, offset: 0x1B4BB, size: 0x8, addend: 0x0, symName: _.str.104, symObjAddr: 0x7A4E0, symBinAddr: 0x10007EEC0, symSize: 0x0 }
  - { offsetInCU: 0x1B4CD, offset: 0x1B4CD, size: 0x8, addend: 0x0, symName: _.str.105, symObjAddr: 0x7A500, symBinAddr: 0x10007EEE0, symSize: 0x0 }
  - { offsetInCU: 0x1B4DF, offset: 0x1B4DF, size: 0x8, addend: 0x0, symName: _.str.106, symObjAddr: 0x7A520, symBinAddr: 0x10007EF00, symSize: 0x0 }
  - { offsetInCU: 0x1B4F1, offset: 0x1B4F1, size: 0x8, addend: 0x0, symName: _.str.107, symObjAddr: 0x7A540, symBinAddr: 0x10007EF20, symSize: 0x0 }
  - { offsetInCU: 0x1B503, offset: 0x1B503, size: 0x8, addend: 0x0, symName: _.str.108, symObjAddr: 0x7A560, symBinAddr: 0x10007EF40, symSize: 0x0 }
  - { offsetInCU: 0x1B515, offset: 0x1B515, size: 0x8, addend: 0x0, symName: _.str.109, symObjAddr: 0x7A580, symBinAddr: 0x10007EF60, symSize: 0x0 }
  - { offsetInCU: 0x1B527, offset: 0x1B527, size: 0x8, addend: 0x0, symName: _.str.110, symObjAddr: 0x7A5C0, symBinAddr: 0x10007EFA0, symSize: 0x0 }
  - { offsetInCU: 0x1B545, offset: 0x1B545, size: 0x8, addend: 0x0, symName: _.str.111, symObjAddr: 0x7A5E0, symBinAddr: 0x10007EFC0, symSize: 0x0 }
  - { offsetInCU: 0x1B557, offset: 0x1B557, size: 0x8, addend: 0x0, symName: _.str.112, symObjAddr: 0x7A620, symBinAddr: 0x10007F000, symSize: 0x0 }
  - { offsetInCU: 0x1B575, offset: 0x1B575, size: 0x8, addend: 0x0, symName: _.str.113, symObjAddr: 0x7A640, symBinAddr: 0x10007F020, symSize: 0x0 }
  - { offsetInCU: 0x1D3CA, offset: 0x1D3CA, size: 0x8, addend: 0x0, symName: __ZNSt3__16vectorI11TransactionNS_9allocatorIS1_EEE26__swap_out_circular_bufferERNS_14__split_bufferIS1_RS3_EE, symObjAddr: 0x5ADC4, symBinAddr: 0x10005EE40, symSize: 0x85C }
  - { offsetInCU: 0x1F9E5, offset: 0x1F9E5, size: 0x8, addend: 0x0, symName: __Z7getModeiPPcRbRNSt3__112basic_stringIcNS2_11char_traitsIcEENS2_9allocatorIcEEEE, symObjAddr: 0x0, symBinAddr: 0x10000407C, symSize: 0x81C }
  - { offsetInCU: 0x1FA9F, offset: 0x1FA9F, size: 0x8, addend: 0x0, symName: __ZNSt3__112basic_stringIcNS_11char_traitsIcEENS_9allocatorIcEEEC1B8ue170006ILi0EEEPKc, symObjAddr: 0x8EC, symBinAddr: 0x100004968, symSize: 0x80 }
  - { offsetInCU: 0x1FADE, offset: 0x1FADE, size: 0x8, addend: 0x0, symName: __ZNSt3__112basic_stringIcNS_11char_traitsIcEENS_9allocatorIcEEEixB8ue170006Em, symObjAddr: 0x96C, symBinAddr: 0x1000049E8, symSize: 0x170 }
  - { offsetInCU: 0x1FB13, offset: 0x1FB13, size: 0x8, addend: 0x0, symName: __ZNKSt3__112basic_stringIcNS_11char_traitsIcEENS_9allocatorIcEEE6lengthB8ue170006Ev, symObjAddr: 0xADC, symBinAddr: 0x100004B58, symSize: 0x6C }
  - { offsetInCU: 0x1FB39, offset: 0x1FB39, size: 0x8, addend: 0x0, symName: __ZNSt3__113basic_ostreamIcNS_11char_traitsIcEEElsB8ue170006EPFRS3_S4_E, symObjAddr: 0xB48, symBinAddr: 0x100004BC4, symSize: 0x108 }
  - { offsetInCU: 0x1FB6D, offset: 0x1FB6D, size: 0x8, addend: 0x0, symName: _main, symObjAddr: 0x1028, symBinAddr: 0x1000050A4, symSize: 0x4490 }
  - { offsetInCU: 0x1FF36, offset: 0x1FF36, size: 0x8, addend: 0x0, symName: __ZNSt3__112basic_stringIcNS_11char_traitsIcEENS_9allocatorIcEEEC1B8ue170006Ev, symObjAddr: 0x54E8, symBinAddr: 0x100009564, symSize: 0x78 }
  - { offsetInCU: 0x1FF60, offset: 0x1FF60, size: 0x8, addend: 0x0, symName: __ZNKSt3__112basic_stringIcNS_11char_traitsIcEENS_9allocatorIcEEE5emptyB8ue170006Ev, symObjAddr: 0x5560, symBinAddr: 0x1000095DC, symSize: 0x78 }
  - { offsetInCU: 0x1FF86, offset: 0x1FF86, size: 0x8, addend: 0x0, symName: __ZN4BankC1Eb, symObjAddr: 0x55D8, symBinAddr: 0x100009654, symSize: 0xBC }
  - { offsetInCU: 0x20102, offset: 0x20102, size: 0x8, addend: 0x0, symName: __ZNSt3__114basic_ifstreamIcNS_11char_traitsIcEEEC1ERKNS_12basic_stringIcS2_NS_9allocatorIcEEEEj, symObjAddr: 0x5694, symBinAddr: 0x100009710, symSize: 0x6EC }
  - { offsetInCU: 0x2014C, offset: 0x2014C, size: 0x8, addend: 0x0, symName: __ZNKSt3__19basic_iosIcNS_11char_traitsIcEEE4goodB8ue170006Ev, symObjAddr: 0x5D80, symBinAddr: 0x100009DFC, symSize: 0x124 }
  - { offsetInCU: 0x20172, offset: 0x20172, size: 0x8, addend: 0x0, symName: __ZNKSt3__19basic_iosIcNS_11char_traitsIcEEEcvbB8ue170006Ev, symObjAddr: 0x5EA4, symBinAddr: 0x100009F20, symSize: 0xFC }
  - { offsetInCU: 0x20198, offset: 0x20198, size: 0x8, addend: 0x0, symName: __ZNKSt3__112basic_stringIcNS_11char_traitsIcEENS_9allocatorIcEEE6substrB8ue170006Emm, symObjAddr: 0x6F88, symBinAddr: 0x10000B004, symSize: 0x2E0 }
  - { offsetInCU: 0x201DF, offset: 0x201DF, size: 0x8, addend: 0x0, symName: __ZNSt3__112basic_stringIcNS_11char_traitsIcEENS_9allocatorIcEEEaSB8ue170006EOS5_, symObjAddr: 0x7268, symBinAddr: 0x10000B2E4, symSize: 0x104 }
  - { offsetInCU: 0x20214, offset: 0x20214, size: 0x8, addend: 0x0, symName: __ZNKSt3__112basic_stringIcNS_11char_traitsIcEENS_9allocatorIcEEE5c_strB8ue170006Ev, symObjAddr: 0x736C, symBinAddr: 0x10000B3E8, symSize: 0x6C }
  - { offsetInCU: 0x2023A, offset: 0x2023A, size: 0x8, addend: 0x0, symName: __ZN4UserC1EyNSt3__112basic_stringIcNS0_11char_traitsIcEENS0_9allocatorIcEEEES6_y, symObjAddr: 0x7708, symBinAddr: 0x10000B784, symSize: 0xA0 }
  - { offsetInCU: 0x2029E, offset: 0x2029E, size: 0x8, addend: 0x0, symName: __ZN4Bank7addUserE4User, symObjAddr: 0x77A8, symBinAddr: 0x10000B824, symSize: 0x490 }
  - { offsetInCU: 0x202DB, offset: 0x202DB, size: 0x8, addend: 0x0, symName: __ZN4UserC1ERKS_, symObjAddr: 0x7C38, symBinAddr: 0x10000BCB4, symSize: 0x80 }
  - { offsetInCU: 0x20310, offset: 0x20310, size: 0x8, addend: 0x0, symName: __ZN4UserD1Ev, symObjAddr: 0x7CB8, symBinAddr: 0x10000BD34, symSize: 0x78 }
  - { offsetInCU: 0x2033C, offset: 0x2033C, size: 0x8, addend: 0x0, symName: __ZNSt3__114basic_ifstreamIcNS_11char_traitsIcEEE5closeEv, symObjAddr: 0x7D30, symBinAddr: 0x10000BDAC, symSize: 0x388 }
  - { offsetInCU: 0x20364, offset: 0x20364, size: 0x8, addend: 0x0, symName: __ZNKSt3__19basic_iosIcNS_11char_traitsIcEEE4failB8ue170006Ev, symObjAddr: 0x80B8, symBinAddr: 0x10000C134, symSize: 0x124 }
  - { offsetInCU: 0x2038A, offset: 0x2038A, size: 0x8, addend: 0x0, symName: __ZN4Bank5loginERKNSt3__112basic_stringIcNS0_11char_traitsIcEENS0_9allocatorIcEEEES8_S6_, symObjAddr: 0x9ADC, symBinAddr: 0x10000DB58, symSize: 0x4F0 }
  - { offsetInCU: 0x203EE, offset: 0x203EE, size: 0x8, addend: 0x0, symName: __ZN4Bank6logoutERKNSt3__112basic_stringIcNS0_11char_traitsIcEENS0_9allocatorIcEEEES6_, symObjAddr: 0xA0F8, symBinAddr: 0x10000E174, symSize: 0x240 }
  - { offsetInCU: 0x2043F, offset: 0x2043F, size: 0x8, addend: 0x0, symName: __ZN4Bank16placeTransactionERNSt3__112basic_stringIcNS0_11char_traitsIcEENS0_9allocatorIcEEEES7_S7_S7_RKS6_S9_S9_, symObjAddr: 0xA338, symBinAddr: 0x10000E3B4, symSize: 0x21D8 }
  - { offsetInCU: 0x205AA, offset: 0x205AA, size: 0x8, addend: 0x0, symName: __ZN4Bank15hasTransactionsEv, symObjAddr: 0xC510, symBinAddr: 0x10001058C, symSize: 0xF8 }
  - { offsetInCU: 0x205D0, offset: 0x205D0, size: 0x8, addend: 0x0, symName: __ZN4Bank18executeTransactionERNSt3__112basic_stringIcNS0_11char_traitsIcEENS0_9allocatorIcEEEE, symObjAddr: 0xC608, symBinAddr: 0x100010684, symSize: 0x1B94 }
  - { offsetInCU: 0x206B8, offset: 0x206B8, size: 0x8, addend: 0x0, symName: __ZN4Bank16ListTransactionsERNSt3__112basic_stringIcNS0_11char_traitsIcEENS0_9allocatorIcEEEES7_, symObjAddr: 0xE19C, symBinAddr: 0x100012218, symSize: 0x28AC }
  - { offsetInCU: 0x207E0, offset: 0x207E0, size: 0x8, addend: 0x0, symName: __ZN4Bank11BankRevenueERNSt3__112basic_stringIcNS0_11char_traitsIcEENS0_9allocatorIcEEEES7_, symObjAddr: 0x10A48, symBinAddr: 0x100014AC4, symSize: 0x2180 }
  - { offsetInCU: 0x208FC, offset: 0x208FC, size: 0x8, addend: 0x0, symName: __ZN4Bank15CustomerHistoryERNSt3__112basic_stringIcNS0_11char_traitsIcEENS0_9allocatorIcEEEE, symObjAddr: 0x12BC8, symBinAddr: 0x100016C44, symSize: 0x23DC }
  - { offsetInCU: 0x209EE, offset: 0x209EE, size: 0x8, addend: 0x0, symName: __ZN4Bank12SummarizeDayENSt3__112basic_stringIcNS0_11char_traitsIcEENS0_9allocatorIcEEEE, symObjAddr: 0x14FA4, symBinAddr: 0x100019020, symSize: 0x2020 }
  - { offsetInCU: 0x20AF6, offset: 0x20AF6, size: 0x8, addend: 0x0, symName: __ZNSt3__114basic_ifstreamIcNS_11char_traitsIcEEED1Ev, symObjAddr: 0x16FC4, symBinAddr: 0x10001B040, symSize: 0x8C }
  - { offsetInCU: 0x20B23, offset: 0x20B23, size: 0x8, addend: 0x0, symName: __ZN4BankD1Ev, symObjAddr: 0x17050, symBinAddr: 0x10001B0CC, symSize: 0x78 }
  - { offsetInCU: 0x20B4F, offset: 0x20B4F, size: 0x8, addend: 0x0, symName: __ZN4BankC2Eb, symObjAddr: 0x170C8, symBinAddr: 0x10001B144, symSize: 0x1C8 }
  - { offsetInCU: 0x20B87, offset: 0x20B87, size: 0x8, addend: 0x0, symName: __ZNSt3__113unordered_mapINS_12basic_stringIcNS_11char_traitsIcEENS_9allocatorIcEEEE4UserNS_4hashIS6_EENS_8equal_toIS6_EENS4_INS_4pairIKS6_S7_EEEEEC1B8ue170006Ev, symObjAddr: 0x17290, symBinAddr: 0x10001B30C, symSize: 0x78 }
  - { offsetInCU: 0x20BB1, offset: 0x20BB1, size: 0x8, addend: 0x0, symName: __ZNSt3__114priority_queueI11TransactionNS_6vectorIS1_NS_9allocatorIS1_EEEE18TransactionCompareEC1B8ue170006Ev, symObjAddr: 0x17308, symBinAddr: 0x10001B384, symSize: 0x78 }
  - { offsetInCU: 0x20BDB, offset: 0x20BDB, size: 0x8, addend: 0x0, symName: __ZNSt3__16vectorI11TransactionNS_9allocatorIS1_EEEC1B8ue170006Ev, symObjAddr: 0x17380, symBinAddr: 0x10001B3FC, symSize: 0x78 }
  - { offsetInCU: 0x20C05, offset: 0x20C05, size: 0x8, addend: 0x0, symName: __ZNSt3__113unordered_mapINS_12basic_stringIcNS_11char_traitsIcEENS_9allocatorIcEEEE4UserNS_4hashIS6_EENS_8equal_toIS6_EENS4_INS_4pairIKS6_S7_EEEEEC2B8ue170006Ev, symObjAddr: 0x173F8, symBinAddr: 0x10001B474, symSize: 0x78 }
  - { offsetInCU: 0x20C2F, offset: 0x20C2F, size: 0x8, addend: 0x0, symName: __ZNSt3__112__hash_tableINS_17__hash_value_typeINS_12basic_stringIcNS_11char_traitsIcEENS_9allocatorIcEEEE4UserEENS_22__unordered_map_hasherIS7_S9_NS_4hashIS7_EENS_8equal_toIS7_EELb1EEENS_21__unordered_map_equalIS7_S9_SE_SC_Lb1EEENS5_IS9_EEEC1Ev, symObjAddr: 0x17470, symBinAddr: 0x10001B4EC, symSize: 0x78 }
  - { offsetInCU: 0x20C5B, offset: 0x20C5B, size: 0x8, addend: 0x0, symName: __ZNSt3__112__hash_tableINS_17__hash_value_typeINS_12basic_stringIcNS_11char_traitsIcEENS_9allocatorIcEEEE4UserEENS_22__unordered_map_hasherIS7_S9_NS_4hashIS7_EENS_8equal_toIS7_EELb1EEENS_21__unordered_map_equalIS7_S9_SE_SC_Lb1EEENS5_IS9_EEEC2Ev, symObjAddr: 0x174E8, symBinAddr: 0x10001B564, symSize: 0x3E0 }
  - { offsetInCU: 0x20C88, offset: 0x20C88, size: 0x8, addend: 0x0, symName: __ZNSt3__110unique_ptrIA_PNS_16__hash_node_baseIPNS_11__hash_nodeINS_17__hash_value_typeINS_12basic_stringIcNS_11char_traitsIcEENS_9allocatorIcEEEE4UserEEPvEEEENS_25__bucket_list_deallocatorINS7_ISG_EEEEEC1B8ue170006ILb1EvEEv, symObjAddr: 0x178C8, symBinAddr: 0x10001B944, symSize: 0x78 }
  - { offsetInCU: 0x20CBD, offset: 0x20CBD, size: 0x8, addend: 0x0, symName: __ZNSt3__117__compressed_pairINS_16__hash_node_baseIPNS_11__hash_nodeINS_17__hash_value_typeINS_12basic_stringIcNS_11char_traitsIcEENS_9allocatorIcEEEE4UserEEPvEEEENS7_ISD_EEEC1B8ue170006ILb1EvEEv, symObjAddr: 0x17940, symBinAddr: 0x10001B9BC, symSize: 0x78 }
  - { offsetInCU: 0x20CFE, offset: 0x20CFE, size: 0x8, addend: 0x0, symName: __ZNSt3__117__compressed_pairImNS_22__unordered_map_hasherINS_12basic_stringIcNS_11char_traitsIcEENS_9allocatorIcEEEENS_17__hash_value_typeIS7_4UserEENS_4hashIS7_EENS_8equal_toIS7_EELb1EEEEC1B8ue170006IiNS_18__default_init_tagEEEOT_OT0_, symObjAddr: 0x179C4, symBinAddr: 0x10001BA40, symSize: 0x88 }
  - { offsetInCU: 0x20D5C, offset: 0x20D5C, size: 0x8, addend: 0x0, symName: __ZNSt3__117__compressed_pairIfNS_21__unordered_map_equalINS_12basic_stringIcNS_11char_traitsIcEENS_9allocatorIcEEEENS_17__hash_value_typeIS7_4UserEENS_8equal_toIS7_EENS_4hashIS7_EELb1EEEEC1B8ue170006IfNS_18__default_init_tagEEEOT_OT0_, symObjAddr: 0x17A4C, symBinAddr: 0x10001BAC8, symSize: 0x88 }
  - { offsetInCU: 0x20DB4, offset: 0x20DB4, size: 0x8, addend: 0x0, symName: __ZNSt3__110unique_ptrIA_PNS_16__hash_node_baseIPNS_11__hash_nodeINS_17__hash_value_typeINS_12basic_stringIcNS_11char_traitsIcEENS_9allocatorIcEEEE4UserEEPvEEEENS_25__bucket_list_deallocatorINS7_ISG_EEEEEC2B8ue170006ILb1EvEEv, symObjAddr: 0x17AD4, symBinAddr: 0x10001BB50, symSize: 0x268 }
  - { offsetInCU: 0x20DF0, offset: 0x20DF0, size: 0x8, addend: 0x0, symName: __ZNSt3__117__compressed_pairIPPNS_16__hash_node_baseIPNS_11__hash_nodeINS_17__hash_value_typeINS_12basic_stringIcNS_11char_traitsIcEENS_9allocatorIcEEEE4UserEEPvEEEENS_25__bucket_list_deallocatorINS7_ISG_EEEEEC1B8ue170006INS_16__value_init_tagESN_EEOT_OT0_, symObjAddr: 0x17D3C, symBinAddr: 0x10001BDB8, symSize: 0x88 }
  - { offsetInCU: 0x20E48, offset: 0x20E48, size: 0x8, addend: 0x0, symName: __ZNSt3__117__compressed_pairIPPNS_16__hash_node_baseIPNS_11__hash_nodeINS_17__hash_value_typeINS_12basic_stringIcNS_11char_traitsIcEENS_9allocatorIcEEEE4UserEEPvEEEENS_25__bucket_list_deallocatorINS7_ISG_EEEEEC2B8ue170006INS_16__value_init_tagESN_EEOT_OT0_, symObjAddr: 0x17DC4, symBinAddr: 0x10001BE40, symSize: 0x118 }
  - { offsetInCU: 0x20EA0, offset: 0x20EA0, size: 0x8, addend: 0x0, symName: __ZNSt3__122__compressed_pair_elemIPPNS_16__hash_node_baseIPNS_11__hash_nodeINS_17__hash_value_typeINS_12basic_stringIcNS_11char_traitsIcEENS_9allocatorIcEEEE4UserEEPvEEEELi0ELb0EEC2B8ue170006ENS_16__value_init_tagE, symObjAddr: 0x17EDC, symBinAddr: 0x10001BF58, symSize: 0xB8 }
  - { offsetInCU: 0x20ED4, offset: 0x20ED4, size: 0x8, addend: 0x0, symName: __ZNSt3__122__compressed_pair_elemINS_25__bucket_list_deallocatorINS_9allocatorIPNS_16__hash_node_baseIPNS_11__hash_nodeINS_17__hash_value_typeINS_12basic_stringIcNS_11char_traitsIcEENS2_IcEEEE4UserEEPvEEEEEEEELi1ELb0EEC2B8ue170006ENS_16__value_init_tagE, symObjAddr: 0x17F94, symBinAddr: 0x10001C010, symSize: 0x78 }
  - { offsetInCU: 0x20F08, offset: 0x20F08, size: 0x8, addend: 0x0, symName: __ZNSt3__125__bucket_list_deallocatorINS_9allocatorIPNS_16__hash_node_baseIPNS_11__hash_nodeINS_17__hash_value_typeINS_12basic_stringIcNS_11char_traitsIcEENS1_IcEEEE4UserEEPvEEEEEEEC1B8ue170006Ev, symObjAddr: 0x1800C, symBinAddr: 0x10001C088, symSize: 0x78 }
  - { offsetInCU: 0x20F32, offset: 0x20F32, size: 0x8, addend: 0x0, symName: __ZNSt3__125__bucket_list_deallocatorINS_9allocatorIPNS_16__hash_node_baseIPNS_11__hash_nodeINS_17__hash_value_typeINS_12basic_stringIcNS_11char_traitsIcEENS1_IcEEEE4UserEEPvEEEEEEEC2B8ue170006Ev, symObjAddr: 0x18084, symBinAddr: 0x10001C100, symSize: 0x2CC }
  - { offsetInCU: 0x20F5D, offset: 0x20F5D, size: 0x8, addend: 0x0, symName: __ZNSt3__117__compressed_pairImNS_9allocatorIPNS_16__hash_node_baseIPNS_11__hash_nodeINS_17__hash_value_typeINS_12basic_stringIcNS_11char_traitsIcEENS1_IcEEEE4UserEEPvEEEEEEEC1B8ue170006IiNS_18__default_init_tagEEEOT_OT0_, symObjAddr: 0x18350, symBinAddr: 0x10001C3CC, symSize: 0x88 }
  - { offsetInCU: 0x20FB5, offset: 0x20FB5, size: 0x8, addend: 0x0, symName: __ZNSt3__117__compressed_pairImNS_9allocatorIPNS_16__hash_node_baseIPNS_11__hash_nodeINS_17__hash_value_typeINS_12basic_stringIcNS_11char_traitsIcEENS1_IcEEEE4UserEEPvEEEEEEEC2B8ue170006IiNS_18__default_init_tagEEEOT_OT0_, symObjAddr: 0x183D8, symBinAddr: 0x10001C454, symSize: 0x140 }
  - { offsetInCU: 0x2100D, offset: 0x2100D, size: 0x8, addend: 0x0, symName: __ZNSt3__122__compressed_pair_elemImLi0ELb0EEC2B8ue170006IivEEOT_, symObjAddr: 0x18518, symBinAddr: 0x10001C594, symSize: 0x16C }
  - { offsetInCU: 0x2104F, offset: 0x2104F, size: 0x8, addend: 0x0, symName: __ZNSt3__122__compressed_pair_elemINS_9allocatorIPNS_16__hash_node_baseIPNS_11__hash_nodeINS_17__hash_value_typeINS_12basic_stringIcNS_11char_traitsIcEENS1_IcEEEE4UserEEPvEEEEEELi1ELb1EEC2B8ue170006ENS_18__default_init_tagE, symObjAddr: 0x18684, symBinAddr: 0x10001C700, symSize: 0x84 }
  - { offsetInCU: 0x21083, offset: 0x21083, size: 0x8, addend: 0x0, symName: __ZNSt3__19allocatorIPNS_16__hash_node_baseIPNS_11__hash_nodeINS_17__hash_value_typeINS_12basic_stringIcNS_11char_traitsIcEENS0_IcEEEE4UserEEPvEEEEEC2B8ue170006Ev, symObjAddr: 0x18708, symBinAddr: 0x10001C784, symSize: 0x84 }
  - { offsetInCU: 0x210AD, offset: 0x210AD, size: 0x8, addend: 0x0, symName: __ZNSt3__116__non_trivial_ifILb1ENS_9allocatorIPNS_16__hash_node_baseIPNS_11__hash_nodeINS_17__hash_value_typeINS_12basic_stringIcNS_11char_traitsIcEENS1_IcEEEE4UserEEPvEEEEEEEC2B8ue170006Ev, symObjAddr: 0x1878C, symBinAddr: 0x10001C808, symSize: 0x54 }
  - { offsetInCU: 0x210D7, offset: 0x210D7, size: 0x8, addend: 0x0, symName: __ZNSt3__117__compressed_pairINS_16__hash_node_baseIPNS_11__hash_nodeINS_17__hash_value_typeINS_12basic_stringIcNS_11char_traitsIcEENS_9allocatorIcEEEE4UserEEPvEEEENS7_ISD_EEEC2B8ue170006ILb1EvEEv, symObjAddr: 0x187E0, symBinAddr: 0x10001C85C, symSize: 0xEC }
  - { offsetInCU: 0x2110C, offset: 0x2110C, size: 0x8, addend: 0x0, symName: __ZNSt3__122__compressed_pair_elemINS_16__hash_node_baseIPNS_11__hash_nodeINS_17__hash_value_typeINS_12basic_stringIcNS_11char_traitsIcEENS_9allocatorIcEEEE4UserEEPvEEEELi0ELb0EEC2B8ue170006ENS_16__value_init_tagE, symObjAddr: 0x188CC, symBinAddr: 0x10001C948, symSize: 0x78 }
  - { offsetInCU: 0x21140, offset: 0x21140, size: 0x8, addend: 0x0, symName: __ZNSt3__122__compressed_pair_elemINS_9allocatorINS_11__hash_nodeINS_17__hash_value_typeINS_12basic_stringIcNS_11char_traitsIcEENS1_IcEEEE4UserEEPvEEEELi1ELb1EEC2B8ue170006ENS_16__value_init_tagE, symObjAddr: 0x18944, symBinAddr: 0x10001C9C0, symSize: 0x84 }
  - { offsetInCU: 0x21174, offset: 0x21174, size: 0x8, addend: 0x0, symName: __ZNSt3__116__hash_node_baseIPNS_11__hash_nodeINS_17__hash_value_typeINS_12basic_stringIcNS_11char_traitsIcEENS_9allocatorIcEEEE4UserEEPvEEEC1B8ue170006Ev, symObjAddr: 0x189C8, symBinAddr: 0x10001CA44, symSize: 0x78 }
  - { offsetInCU: 0x2119E, offset: 0x2119E, size: 0x8, addend: 0x0, symName: __ZNSt3__116__hash_node_baseIPNS_11__hash_nodeINS_17__hash_value_typeINS_12basic_stringIcNS_11char_traitsIcEENS_9allocatorIcEEEE4UserEEPvEEEC2B8ue170006Ev, symObjAddr: 0x18A40, symBinAddr: 0x10001CABC, symSize: 0xB8 }
  - { offsetInCU: 0x211C8, offset: 0x211C8, size: 0x8, addend: 0x0, symName: __ZNSt3__19allocatorINS_11__hash_nodeINS_17__hash_value_typeINS_12basic_stringIcNS_11char_traitsIcEENS0_IcEEEE4UserEEPvEEEC2B8ue170006Ev, symObjAddr: 0x18AF8, symBinAddr: 0x10001CB74, symSize: 0x84 }
  - { offsetInCU: 0x211F2, offset: 0x211F2, size: 0x8, addend: 0x0, symName: __ZNSt3__116__non_trivial_ifILb1ENS_9allocatorINS_11__hash_nodeINS_17__hash_value_typeINS_12basic_stringIcNS_11char_traitsIcEENS1_IcEEEE4UserEEPvEEEEEC2B8ue170006Ev, symObjAddr: 0x18B7C, symBinAddr: 0x10001CBF8, symSize: 0x54 }
  - { offsetInCU: 0x2121C, offset: 0x2121C, size: 0x8, addend: 0x0, symName: __ZNSt3__117__compressed_pairImNS_22__unordered_map_hasherINS_12basic_stringIcNS_11char_traitsIcEENS_9allocatorIcEEEENS_17__hash_value_typeIS7_4UserEENS_4hashIS7_EENS_8equal_toIS7_EELb1EEEEC2B8ue170006IiNS_18__default_init_tagEEEOT_OT0_, symObjAddr: 0x18BD0, symBinAddr: 0x10001CC4C, symSize: 0x140 }
  - { offsetInCU: 0x21274, offset: 0x21274, size: 0x8, addend: 0x0, symName: __ZNSt3__122__compressed_pair_elemINS_22__unordered_map_hasherINS_12basic_stringIcNS_11char_traitsIcEENS_9allocatorIcEEEENS_17__hash_value_typeIS7_4UserEENS_4hashIS7_EENS_8equal_toIS7_EELb1EEELi1ELb1EEC2B8ue170006ENS_18__default_init_tagE, symObjAddr: 0x18D10, symBinAddr: 0x10001CD8C, symSize: 0x84 }
  - { offsetInCU: 0x212A8, offset: 0x212A8, size: 0x8, addend: 0x0, symName: __ZNSt3__122__unordered_map_hasherINS_12basic_stringIcNS_11char_traitsIcEENS_9allocatorIcEEEENS_17__hash_value_typeIS6_4UserEENS_4hashIS6_EENS_8equal_toIS6_EELb1EEC2B8ue170006Ev, symObjAddr: 0x18D94, symBinAddr: 0x10001CE10, symSize: 0x54 }
  - { offsetInCU: 0x212D2, offset: 0x212D2, size: 0x8, addend: 0x0, symName: __ZNSt3__117__compressed_pairIfNS_21__unordered_map_equalINS_12basic_stringIcNS_11char_traitsIcEENS_9allocatorIcEEEENS_17__hash_value_typeIS7_4UserEENS_8equal_toIS7_EENS_4hashIS7_EELb1EEEEC2B8ue170006IfNS_18__default_init_tagEEEOT_OT0_, symObjAddr: 0x18DE8, symBinAddr: 0x10001CE64, symSize: 0x140 }
  - { offsetInCU: 0x2132A, offset: 0x2132A, size: 0x8, addend: 0x0, symName: __ZNSt3__122__compressed_pair_elemIfLi0ELb0EEC2B8ue170006IfvEEOT_, symObjAddr: 0x18F28, symBinAddr: 0x10001CFA4, symSize: 0x194 }
  - { offsetInCU: 0x2136C, offset: 0x2136C, size: 0x8, addend: 0x0, symName: __ZNSt3__122__compressed_pair_elemINS_21__unordered_map_equalINS_12basic_stringIcNS_11char_traitsIcEENS_9allocatorIcEEEENS_17__hash_value_typeIS7_4UserEENS_8equal_toIS7_EENS_4hashIS7_EELb1EEELi1ELb1EEC2B8ue170006ENS_18__default_init_tagE, symObjAddr: 0x190BC, symBinAddr: 0x10001D138, symSize: 0x84 }
  - { offsetInCU: 0x213A0, offset: 0x213A0, size: 0x8, addend: 0x0, symName: __ZNSt3__121__unordered_map_equalINS_12basic_stringIcNS_11char_traitsIcEENS_9allocatorIcEEEENS_17__hash_value_typeIS6_4UserEENS_8equal_toIS6_EENS_4hashIS6_EELb1EEC2B8ue170006Ev, symObjAddr: 0x19140, symBinAddr: 0x10001D1BC, symSize: 0x54 }
  - { offsetInCU: 0x213CA, offset: 0x213CA, size: 0x8, addend: 0x0, symName: __ZNSt3__114priority_queueI11TransactionNS_6vectorIS1_NS_9allocatorIS1_EEEE18TransactionCompareEC2B8ue170006Ev, symObjAddr: 0x19194, symBinAddr: 0x10001D210, symSize: 0x78 }
  - { offsetInCU: 0x213F4, offset: 0x213F4, size: 0x8, addend: 0x0, symName: __ZNSt3__16vectorI11TransactionNS_9allocatorIS1_EEEC2B8ue170006Ev, symObjAddr: 0x1920C, symBinAddr: 0x10001D288, symSize: 0x340 }
  - { offsetInCU: 0x21425, offset: 0x21425, size: 0x8, addend: 0x0, symName: __ZNSt3__117__compressed_pairIP11TransactionNS_9allocatorIS1_EEEC1B8ue170006IDnNS_18__default_init_tagEEEOT_OT0_, symObjAddr: 0x1954C, symBinAddr: 0x10001D5C8, symSize: 0x88 }
  - { offsetInCU: 0x2147D, offset: 0x2147D, size: 0x8, addend: 0x0, symName: __ZNSt3__117__compressed_pairIP11TransactionNS_9allocatorIS1_EEEC2B8ue170006IDnNS_18__default_init_tagEEEOT_OT0_, symObjAddr: 0x195D4, symBinAddr: 0x10001D650, symSize: 0x140 }
  - { offsetInCU: 0x214D5, offset: 0x214D5, size: 0x8, addend: 0x0, symName: __ZNSt3__122__compressed_pair_elemIP11TransactionLi0ELb0EEC2B8ue170006IDnvEEOT_, symObjAddr: 0x19714, symBinAddr: 0x10001D790, symSize: 0xBC }
  - { offsetInCU: 0x21517, offset: 0x21517, size: 0x8, addend: 0x0, symName: __ZNSt3__122__compressed_pair_elemINS_9allocatorI11TransactionEELi1ELb1EEC2B8ue170006ENS_18__default_init_tagE, symObjAddr: 0x197D0, symBinAddr: 0x10001D84C, symSize: 0x84 }
  - { offsetInCU: 0x2154B, offset: 0x2154B, size: 0x8, addend: 0x0, symName: __ZNSt3__19allocatorI11TransactionEC2B8ue170006Ev, symObjAddr: 0x19854, symBinAddr: 0x10001D8D0, symSize: 0x84 }
  - { offsetInCU: 0x21575, offset: 0x21575, size: 0x8, addend: 0x0, symName: __ZNSt3__116__non_trivial_ifILb1ENS_9allocatorI11TransactionEEEC2B8ue170006Ev, symObjAddr: 0x198D8, symBinAddr: 0x10001D954, symSize: 0x54 }
  - { offsetInCU: 0x2159F, offset: 0x2159F, size: 0x8, addend: 0x0, symName: __ZN4UserC2EyNSt3__112basic_stringIcNS0_11char_traitsIcEENS0_9allocatorIcEEEES6_y, symObjAddr: 0x1992C, symBinAddr: 0x10001D9A8, symSize: 0x22C }
  - { offsetInCU: 0x21603, offset: 0x21603, size: 0x8, addend: 0x0, symName: __ZNSt3__113unordered_setINS_12basic_stringIcNS_11char_traitsIcEENS_9allocatorIcEEEENS_4hashIS6_EENS_8equal_toIS6_EENS4_IS6_EEEC1B8ue170006Ev, symObjAddr: 0x19B58, symBinAddr: 0x10001DBD4, symSize: 0x78 }
  - { offsetInCU: 0x2162D, offset: 0x2162D, size: 0x8, addend: 0x0, symName: __ZNSt3__113unordered_setINS_12basic_stringIcNS_11char_traitsIcEENS_9allocatorIcEEEENS_4hashIS6_EENS_8equal_toIS6_EENS4_IS6_EEEC2B8ue170006Ev, symObjAddr: 0x19BD0, symBinAddr: 0x10001DC4C, symSize: 0x78 }
  - { offsetInCU: 0x21657, offset: 0x21657, size: 0x8, addend: 0x0, symName: __ZNSt3__112__hash_tableINS_12basic_stringIcNS_11char_traitsIcEENS_9allocatorIcEEEENS_4hashIS6_EENS_8equal_toIS6_EENS4_IS6_EEEC1Ev, symObjAddr: 0x19C48, symBinAddr: 0x10001DCC4, symSize: 0x78 }
  - { offsetInCU: 0x21683, offset: 0x21683, size: 0x8, addend: 0x0, symName: __ZNSt3__112__hash_tableINS_12basic_stringIcNS_11char_traitsIcEENS_9allocatorIcEEEENS_4hashIS6_EENS_8equal_toIS6_EENS4_IS6_EEEC2Ev, symObjAddr: 0x19CC0, symBinAddr: 0x10001DD3C, symSize: 0x3E0 }
  - { offsetInCU: 0x216B0, offset: 0x216B0, size: 0x8, addend: 0x0, symName: __ZNSt3__110unique_ptrIA_PNS_16__hash_node_baseIPNS_11__hash_nodeINS_12basic_stringIcNS_11char_traitsIcEENS_9allocatorIcEEEEPvEEEENS_25__bucket_list_deallocatorINS6_ISD_EEEEEC1B8ue170006ILb1EvEEv, symObjAddr: 0x1A0A0, symBinAddr: 0x10001E11C, symSize: 0x78 }
  - { offsetInCU: 0x216E5, offset: 0x216E5, size: 0x8, addend: 0x0, symName: __ZNSt3__117__compressed_pairINS_16__hash_node_baseIPNS_11__hash_nodeINS_12basic_stringIcNS_11char_traitsIcEENS_9allocatorIcEEEEPvEEEENS6_ISA_EEEC1B8ue170006ILb1EvEEv, symObjAddr: 0x1A118, symBinAddr: 0x10001E194, symSize: 0x78 }
  - { offsetInCU: 0x2171A, offset: 0x2171A, size: 0x8, addend: 0x0, symName: __ZNSt3__117__compressed_pairImNS_4hashINS_12basic_stringIcNS_11char_traitsIcEENS_9allocatorIcEEEEEEEC1B8ue170006IiNS_18__default_init_tagEEEOT_OT0_, symObjAddr: 0x1A190, symBinAddr: 0x10001E20C, symSize: 0x88 }
  - { offsetInCU: 0x21772, offset: 0x21772, size: 0x8, addend: 0x0, symName: __ZNSt3__117__compressed_pairIfNS_8equal_toINS_12basic_stringIcNS_11char_traitsIcEENS_9allocatorIcEEEEEEEC1B8ue170006IfNS_18__default_init_tagEEEOT_OT0_, symObjAddr: 0x1A218, symBinAddr: 0x10001E294, symSize: 0x88 }
  - { offsetInCU: 0x217CA, offset: 0x217CA, size: 0x8, addend: 0x0, symName: __ZNSt3__110unique_ptrIA_PNS_16__hash_node_baseIPNS_11__hash_nodeINS_12basic_stringIcNS_11char_traitsIcEENS_9allocatorIcEEEEPvEEEENS_25__bucket_list_deallocatorINS6_ISD_EEEEEC2B8ue170006ILb1EvEEv, symObjAddr: 0x1A2A0, symBinAddr: 0x10001E31C, symSize: 0x268 }
  - { offsetInCU: 0x21800, offset: 0x21800, size: 0x8, addend: 0x0, symName: __ZNSt3__117__compressed_pairIPPNS_16__hash_node_baseIPNS_11__hash_nodeINS_12basic_stringIcNS_11char_traitsIcEENS_9allocatorIcEEEEPvEEEENS_25__bucket_list_deallocatorINS6_ISD_EEEEEC1B8ue170006INS_16__value_init_tagESK_EEOT_OT0_, symObjAddr: 0x1A508, symBinAddr: 0x10001E584, symSize: 0x88 }
  - { offsetInCU: 0x21858, offset: 0x21858, size: 0x8, addend: 0x0, symName: __ZNSt3__117__compressed_pairIPPNS_16__hash_node_baseIPNS_11__hash_nodeINS_12basic_stringIcNS_11char_traitsIcEENS_9allocatorIcEEEEPvEEEENS_25__bucket_list_deallocatorINS6_ISD_EEEEEC2B8ue170006INS_16__value_init_tagESK_EEOT_OT0_, symObjAddr: 0x1A590, symBinAddr: 0x10001E60C, symSize: 0x118 }
  - { offsetInCU: 0x218B0, offset: 0x218B0, size: 0x8, addend: 0x0, symName: __ZNSt3__122__compressed_pair_elemIPPNS_16__hash_node_baseIPNS_11__hash_nodeINS_12basic_stringIcNS_11char_traitsIcEENS_9allocatorIcEEEEPvEEEELi0ELb0EEC2B8ue170006ENS_16__value_init_tagE, symObjAddr: 0x1A6A8, symBinAddr: 0x10001E724, symSize: 0xB8 }
  - { offsetInCU: 0x218E4, offset: 0x218E4, size: 0x8, addend: 0x0, symName: __ZNSt3__122__compressed_pair_elemINS_25__bucket_list_deallocatorINS_9allocatorIPNS_16__hash_node_baseIPNS_11__hash_nodeINS_12basic_stringIcNS_11char_traitsIcEENS2_IcEEEEPvEEEEEEEELi1ELb0EEC2B8ue170006ENS_16__value_init_tagE, symObjAddr: 0x1A760, symBinAddr: 0x10001E7DC, symSize: 0x78 }
  - { offsetInCU: 0x21918, offset: 0x21918, size: 0x8, addend: 0x0, symName: __ZNSt3__125__bucket_list_deallocatorINS_9allocatorIPNS_16__hash_node_baseIPNS_11__hash_nodeINS_12basic_stringIcNS_11char_traitsIcEENS1_IcEEEEPvEEEEEEEC1B8ue170006Ev, symObjAddr: 0x1A7D8, symBinAddr: 0x10001E854, symSize: 0x78 }
  - { offsetInCU: 0x21942, offset: 0x21942, size: 0x8, addend: 0x0, symName: __ZNSt3__125__bucket_list_deallocatorINS_9allocatorIPNS_16__hash_node_baseIPNS_11__hash_nodeINS_12basic_stringIcNS_11char_traitsIcEENS1_IcEEEEPvEEEEEEEC2B8ue170006Ev, symObjAddr: 0x1A850, symBinAddr: 0x10001E8CC, symSize: 0x2CC }
  - { offsetInCU: 0x2196D, offset: 0x2196D, size: 0x8, addend: 0x0, symName: __ZNSt3__117__compressed_pairImNS_9allocatorIPNS_16__hash_node_baseIPNS_11__hash_nodeINS_12basic_stringIcNS_11char_traitsIcEENS1_IcEEEEPvEEEEEEEC1B8ue170006IiNS_18__default_init_tagEEEOT_OT0_, symObjAddr: 0x1AB1C, symBinAddr: 0x10001EB98, symSize: 0x88 }
  - { offsetInCU: 0x219C5, offset: 0x219C5, size: 0x8, addend: 0x0, symName: __ZNSt3__117__compressed_pairImNS_9allocatorIPNS_16__hash_node_baseIPNS_11__hash_nodeINS_12basic_stringIcNS_11char_traitsIcEENS1_IcEEEEPvEEEEEEEC2B8ue170006IiNS_18__default_init_tagEEEOT_OT0_, symObjAddr: 0x1ABA4, symBinAddr: 0x10001EC20, symSize: 0x140 }
  - { offsetInCU: 0x21A1D, offset: 0x21A1D, size: 0x8, addend: 0x0, symName: __ZNSt3__122__compressed_pair_elemINS_9allocatorIPNS_16__hash_node_baseIPNS_11__hash_nodeINS_12basic_stringIcNS_11char_traitsIcEENS1_IcEEEEPvEEEEEELi1ELb1EEC2B8ue170006ENS_18__default_init_tagE, symObjAddr: 0x1ACE4, symBinAddr: 0x10001ED60, symSize: 0x84 }
  - { offsetInCU: 0x21A51, offset: 0x21A51, size: 0x8, addend: 0x0, symName: __ZNSt3__19allocatorIPNS_16__hash_node_baseIPNS_11__hash_nodeINS_12basic_stringIcNS_11char_traitsIcEENS0_IcEEEEPvEEEEEC2B8ue170006Ev, symObjAddr: 0x1AD68, symBinAddr: 0x10001EDE4, symSize: 0x84 }
  - { offsetInCU: 0x21A7B, offset: 0x21A7B, size: 0x8, addend: 0x0, symName: __ZNSt3__116__non_trivial_ifILb1ENS_9allocatorIPNS_16__hash_node_baseIPNS_11__hash_nodeINS_12basic_stringIcNS_11char_traitsIcEENS1_IcEEEEPvEEEEEEEC2B8ue170006Ev, symObjAddr: 0x1ADEC, symBinAddr: 0x10001EE68, symSize: 0x54 }
  - { offsetInCU: 0x21AA5, offset: 0x21AA5, size: 0x8, addend: 0x0, symName: __ZNSt3__117__compressed_pairINS_16__hash_node_baseIPNS_11__hash_nodeINS_12basic_stringIcNS_11char_traitsIcEENS_9allocatorIcEEEEPvEEEENS6_ISA_EEEC2B8ue170006ILb1EvEEv, symObjAddr: 0x1AE40, symBinAddr: 0x10001EEBC, symSize: 0xEC }
  - { offsetInCU: 0x21ADA, offset: 0x21ADA, size: 0x8, addend: 0x0, symName: __ZNSt3__122__compressed_pair_elemINS_16__hash_node_baseIPNS_11__hash_nodeINS_12basic_stringIcNS_11char_traitsIcEENS_9allocatorIcEEEEPvEEEELi0ELb0EEC2B8ue170006ENS_16__value_init_tagE, symObjAddr: 0x1AF2C, symBinAddr: 0x10001EFA8, symSize: 0x78 }
  - { offsetInCU: 0x21B0E, offset: 0x21B0E, size: 0x8, addend: 0x0, symName: __ZNSt3__122__compressed_pair_elemINS_9allocatorINS_11__hash_nodeINS_12basic_stringIcNS_11char_traitsIcEENS1_IcEEEEPvEEEELi1ELb1EEC2B8ue170006ENS_16__value_init_tagE, symObjAddr: 0x1AFA4, symBinAddr: 0x10001F020, symSize: 0x84 }
  - { offsetInCU: 0x21B42, offset: 0x21B42, size: 0x8, addend: 0x0, symName: __ZNSt3__116__hash_node_baseIPNS_11__hash_nodeINS_12basic_stringIcNS_11char_traitsIcEENS_9allocatorIcEEEEPvEEEC1B8ue170006Ev, symObjAddr: 0x1B028, symBinAddr: 0x10001F0A4, symSize: 0x78 }
  - { offsetInCU: 0x21B6C, offset: 0x21B6C, size: 0x8, addend: 0x0, symName: __ZNSt3__116__hash_node_baseIPNS_11__hash_nodeINS_12basic_stringIcNS_11char_traitsIcEENS_9allocatorIcEEEEPvEEEC2B8ue170006Ev, symObjAddr: 0x1B0A0, symBinAddr: 0x10001F11C, symSize: 0xB8 }
  - { offsetInCU: 0x21B96, offset: 0x21B96, size: 0x8, addend: 0x0, symName: __ZNSt3__19allocatorINS_11__hash_nodeINS_12basic_stringIcNS_11char_traitsIcEENS0_IcEEEEPvEEEC2B8ue170006Ev, symObjAddr: 0x1B158, symBinAddr: 0x10001F1D4, symSize: 0x84 }
  - { offsetInCU: 0x21BC0, offset: 0x21BC0, size: 0x8, addend: 0x0, symName: __ZNSt3__116__non_trivial_ifILb1ENS_9allocatorINS_11__hash_nodeINS_12basic_stringIcNS_11char_traitsIcEENS1_IcEEEEPvEEEEEC2B8ue170006Ev, symObjAddr: 0x1B1DC, symBinAddr: 0x10001F258, symSize: 0x54 }
  - { offsetInCU: 0x21BEA, offset: 0x21BEA, size: 0x8, addend: 0x0, symName: __ZNSt3__117__compressed_pairImNS_4hashINS_12basic_stringIcNS_11char_traitsIcEENS_9allocatorIcEEEEEEEC2B8ue170006IiNS_18__default_init_tagEEEOT_OT0_, symObjAddr: 0x1B230, symBinAddr: 0x10001F2AC, symSize: 0x140 }
  - { offsetInCU: 0x21C42, offset: 0x21C42, size: 0x8, addend: 0x0, symName: __ZNSt3__122__compressed_pair_elemINS_4hashINS_12basic_stringIcNS_11char_traitsIcEENS_9allocatorIcEEEEEELi1ELb1EEC2B8ue170006ENS_18__default_init_tagE, symObjAddr: 0x1B370, symBinAddr: 0x10001F3EC, symSize: 0x54 }
  - { offsetInCU: 0x21C76, offset: 0x21C76, size: 0x8, addend: 0x0, symName: __ZNSt3__117__compressed_pairIfNS_8equal_toINS_12basic_stringIcNS_11char_traitsIcEENS_9allocatorIcEEEEEEEC2B8ue170006IfNS_18__default_init_tagEEEOT_OT0_, symObjAddr: 0x1B3C4, symBinAddr: 0x10001F440, symSize: 0x140 }
  - { offsetInCU: 0x21CCE, offset: 0x21CCE, size: 0x8, addend: 0x0, symName: __ZNSt3__122__compressed_pair_elemINS_8equal_toINS_12basic_stringIcNS_11char_traitsIcEENS_9allocatorIcEEEEEELi1ELb1EEC2B8ue170006ENS_18__default_init_tagE, symObjAddr: 0x1B504, symBinAddr: 0x10001F580, symSize: 0x54 }
  - { offsetInCU: 0x21D02, offset: 0x21D02, size: 0x8, addend: 0x0, symName: __ZNSt3__113unordered_mapINS_12basic_stringIcNS_11char_traitsIcEENS_9allocatorIcEEEE4UserNS_4hashIS6_EENS_8equal_toIS6_EENS4_INS_4pairIKS6_S7_EEEEEixEOS6_, symObjAddr: 0x1B558, symBinAddr: 0x10001F5D4, symSize: 0x4F8 }
  - { offsetInCU: 0x21D3B, offset: 0x21D3B, size: 0x8, addend: 0x0, symName: __ZNK4User9getUserIDEv, symObjAddr: 0x1BA50, symBinAddr: 0x10001FACC, symSize: 0x108 }
  - { offsetInCU: 0x21D67, offset: 0x21D67, size: 0x8, addend: 0x0, symName: __ZN4UseraSERKS_, symObjAddr: 0x1BB58, symBinAddr: 0x10001FBD4, symSize: 0x5F4 }
  - { offsetInCU: 0x21DB0, offset: 0x21DB0, size: 0x8, addend: 0x0, symName: __ZNSt3__112__hash_tableINS_17__hash_value_typeINS_12basic_stringIcNS_11char_traitsIcEENS_9allocatorIcEEEE4UserEENS_22__unordered_map_hasherIS7_S9_NS_4hashIS7_EENS_8equal_toIS7_EELb1EEENS_21__unordered_map_equalIS7_S9_SE_SC_Lb1EEENS5_IS9_EEE25__emplace_unique_key_argsIS7_JRKNS_21piecewise_construct_tENS_5tupleIJOS7_EEENSO_IJEEEEEENS_4pairINS_15__hash_iteratorIPNS_11__hash_nodeIS9_PvEEEEbEERKT_DpOT0_, symObjAddr: 0x1C14C, symBinAddr: 0x1000201C8, symSize: 0x1DD0 }
  - { offsetInCU: 0x21EC4, offset: 0x21EC4, size: 0x8, addend: 0x0, symName: __ZNKSt3__115__hash_iteratorIPNS_11__hash_nodeINS_17__hash_value_typeINS_12basic_stringIcNS_11char_traitsIcEENS_9allocatorIcEEEE4UserEEPvEEEptB8ue170006Ev, symObjAddr: 0x1E164, symBinAddr: 0x1000221E0, symSize: 0x190 }
  - { offsetInCU: 0x21EEA, offset: 0x21EEA, size: 0x8, addend: 0x0, symName: __ZNSt3__117__hash_value_typeINS_12basic_stringIcNS_11char_traitsIcEENS_9allocatorIcEEEE4UserE11__get_valueB8ue170006Ev, symObjAddr: 0x1E2F4, symBinAddr: 0x100022370, symSize: 0xB4 }
  - { offsetInCU: 0x21F10, offset: 0x21F10, size: 0x8, addend: 0x0, symName: __ZNSt3__112__hash_tableINS_17__hash_value_typeINS_12basic_stringIcNS_11char_traitsIcEENS_9allocatorIcEEEE4UserEENS_22__unordered_map_hasherIS7_S9_NS_4hashIS7_EENS_8equal_toIS7_EELb1EEENS_21__unordered_map_equalIS7_S9_SE_SC_Lb1EEENS5_IS9_EEE13hash_functionB8ue170006Ev, symObjAddr: 0x1E3A8, symBinAddr: 0x100022424, symSize: 0xE4 }
  - { offsetInCU: 0x21F36, offset: 0x21F36, size: 0x8, addend: 0x0, symName: __ZNKSt3__122__unordered_map_hasherINS_12basic_stringIcNS_11char_traitsIcEENS_9allocatorIcEEEENS_17__hash_value_typeIS6_4UserEENS_4hashIS6_EENS_8equal_toIS6_EELb1EEclB8ue170006ERKS6_, symObjAddr: 0x1E48C, symBinAddr: 0x100022508, symSize: 0xC8 }
  - { offsetInCU: 0x21F6B, offset: 0x21F6B, size: 0x8, addend: 0x0, symName: __ZNKSt3__112__hash_tableINS_17__hash_value_typeINS_12basic_stringIcNS_11char_traitsIcEENS_9allocatorIcEEEE4UserEENS_22__unordered_map_hasherIS7_S9_NS_4hashIS7_EENS_8equal_toIS7_EELb1EEENS_21__unordered_map_equalIS7_S9_SE_SC_Lb1EEENS5_IS9_EEE12bucket_countB8ue170006Ev, symObjAddr: 0x1E554, symBinAddr: 0x1000225D0, symSize: 0xFC }
  - { offsetInCU: 0x21F91, offset: 0x21F91, size: 0x8, addend: 0x0, symName: __ZNKSt3__110unique_ptrIA_PNS_16__hash_node_baseIPNS_11__hash_nodeINS_17__hash_value_typeINS_12basic_stringIcNS_11char_traitsIcEENS_9allocatorIcEEEE4UserEEPvEEEENS_25__bucket_list_deallocatorINS7_ISG_EEEEEixB8ue170006Em, symObjAddr: 0x1E72C, symBinAddr: 0x1000227A8, symSize: 0x25C }
  - { offsetInCU: 0x21FC6, offset: 0x21FC6, size: 0x8, addend: 0x0, symName: __ZNKSt3__116__hash_node_baseIPNS_11__hash_nodeINS_17__hash_value_typeINS_12basic_stringIcNS_11char_traitsIcEENS_9allocatorIcEEEE4UserEEPvEEE6__hashB8ue170006Ev, symObjAddr: 0x1E988, symBinAddr: 0x100022A04, symSize: 0x180 }
  - { offsetInCU: 0x21FEC, offset: 0x21FEC, size: 0x8, addend: 0x0, symName: __ZNSt3__112__hash_tableINS_17__hash_value_typeINS_12basic_stringIcNS_11char_traitsIcEENS_9allocatorIcEEEE4UserEENS_22__unordered_map_hasherIS7_S9_NS_4hashIS7_EENS_8equal_toIS7_EELb1EEENS_21__unordered_map_equalIS7_S9_SE_SC_Lb1EEENS5_IS9_EEE6key_eqB8ue170006Ev, symObjAddr: 0x1EB08, symBinAddr: 0x100022B84, symSize: 0xE4 }
  - { offsetInCU: 0x22012, offset: 0x22012, size: 0x8, addend: 0x0, symName: __ZNKSt3__121__unordered_map_equalINS_12basic_stringIcNS_11char_traitsIcEENS_9allocatorIcEEEENS_17__hash_value_typeIS6_4UserEENS_8equal_toIS6_EENS_4hashIS6_EELb1EEclB8ue170006ERKS9_RKS6_, symObjAddr: 0x1EBEC, symBinAddr: 0x100022C68, symSize: 0x190 }
  - { offsetInCU: 0x22056, offset: 0x22056, size: 0x8, addend: 0x0, symName: __ZNSt3__116__hash_node_baseIPNS_11__hash_nodeINS_17__hash_value_typeINS_12basic_stringIcNS_11char_traitsIcEENS_9allocatorIcEEEE4UserEEPvEEE8__upcastB8ue170006Ev, symObjAddr: 0x1ED7C, symBinAddr: 0x100022DF8, symSize: 0xF8 }
  - { offsetInCU: 0x2207C, offset: 0x2207C, size: 0x8, addend: 0x0, symName: __ZNSt3__112__hash_tableINS_17__hash_value_typeINS_12basic_stringIcNS_11char_traitsIcEENS_9allocatorIcEEEE4UserEENS_22__unordered_map_hasherIS7_S9_NS_4hashIS7_EENS_8equal_toIS7_EELb1EEENS_21__unordered_map_equalIS7_S9_SE_SC_Lb1EEENS5_IS9_EEE21__construct_node_hashIRKNS_21piecewise_construct_tEJNS_5tupleIJOS7_EEENSO_IJEEEEEENS_10unique_ptrINS_11__hash_nodeIS9_PvEENS_22__hash_node_destructorINS5_ISV_EEEEEEmOT_DpOT0_, symObjAddr: 0x1EE74, symBinAddr: 0x100022EF0, symSize: 0x948 }
  - { offsetInCU: 0x2211F, offset: 0x2211F, size: 0x8, addend: 0x0, symName: __ZNSt3__112__hash_tableINS_17__hash_value_typeINS_12basic_stringIcNS_11char_traitsIcEENS_9allocatorIcEEEE4UserEENS_22__unordered_map_hasherIS7_S9_NS_4hashIS7_EENS_8equal_toIS7_EELb1EEENS_21__unordered_map_equalIS7_S9_SE_SC_Lb1EEENS5_IS9_EEE4sizeB8ue170006Ev, symObjAddr: 0x1F7BC, symBinAddr: 0x100023838, symSize: 0x100 }
  - { offsetInCU: 0x22145, offset: 0x22145, size: 0x8, addend: 0x0, symName: __ZNSt3__112__hash_tableINS_17__hash_value_typeINS_12basic_stringIcNS_11char_traitsIcEENS_9allocatorIcEEEE4UserEENS_22__unordered_map_hasherIS7_S9_NS_4hashIS7_EENS_8equal_toIS7_EELb1EEENS_21__unordered_map_equalIS7_S9_SE_SC_Lb1EEENS5_IS9_EEE15max_load_factorB8ue170006Ev, symObjAddr: 0x1F8BC, symBinAddr: 0x100023938, symSize: 0x100 }
  - { offsetInCU: 0x2216B, offset: 0x2216B, size: 0x8, addend: 0x0, symName: __ZNSt3__112__hash_tableINS_17__hash_value_typeINS_12basic_stringIcNS_11char_traitsIcEENS_9allocatorIcEEEE4UserEENS_22__unordered_map_hasherIS7_S9_NS_4hashIS7_EENS_8equal_toIS7_EELb1EEENS_21__unordered_map_equalIS7_S9_SE_SC_Lb1EEENS5_IS9_EEE15__rehash_uniqueB8ue170006Em, symObjAddr: 0x1F9BC, symBinAddr: 0x100023A38, symSize: 0x74 }
  - { offsetInCU: 0x2219F, offset: 0x2219F, size: 0x8, addend: 0x0, symName: __Z4ceilB8ue170006f, symObjAddr: 0x1FB84, symBinAddr: 0x100023C00, symSize: 0x18 }
  - { offsetInCU: 0x221CE, offset: 0x221CE, size: 0x8, addend: 0x0, symName: __ZNSt3__117__compressed_pairINS_16__hash_node_baseIPNS_11__hash_nodeINS_17__hash_value_typeINS_12basic_stringIcNS_11char_traitsIcEENS_9allocatorIcEEEE4UserEEPvEEEENS7_ISD_EEE5firstB8ue170006Ev, symObjAddr: 0x1FB9C, symBinAddr: 0x100023C18, symSize: 0x124 }
  - { offsetInCU: 0x221F4, offset: 0x221F4, size: 0x8, addend: 0x0, symName: __ZNSt3__116__hash_node_baseIPNS_11__hash_nodeINS_17__hash_value_typeINS_12basic_stringIcNS_11char_traitsIcEENS_9allocatorIcEEEE4UserEEPvEEE5__ptrB8ue170006Ev, symObjAddr: 0x1FCC0, symBinAddr: 0x100023D3C, symSize: 0xB0 }
  - { offsetInCU: 0x2221A, offset: 0x2221A, size: 0x8, addend: 0x0, symName: __ZNKSt3__110unique_ptrINS_11__hash_nodeINS_17__hash_value_typeINS_12basic_stringIcNS_11char_traitsIcEENS_9allocatorIcEEEE4UserEEPvEENS_22__hash_node_destructorINS6_ISC_EEEEEptB8ue170006Ev, symObjAddr: 0x1FD70, symBinAddr: 0x100023DEC, symSize: 0x13C }
  - { offsetInCU: 0x22240, offset: 0x22240, size: 0x8, addend: 0x0, symName: __ZNKSt3__110unique_ptrINS_11__hash_nodeINS_17__hash_value_typeINS_12basic_stringIcNS_11char_traitsIcEENS_9allocatorIcEEEE4UserEEPvEENS_22__hash_node_destructorINS6_ISC_EEEEE3getB8ue170006Ev, symObjAddr: 0x1FEAC, symBinAddr: 0x100023F28, symSize: 0x13C }
  - { offsetInCU: 0x22266, offset: 0x22266, size: 0x8, addend: 0x0, symName: __ZNSt3__110unique_ptrINS_11__hash_nodeINS_17__hash_value_typeINS_12basic_stringIcNS_11char_traitsIcEENS_9allocatorIcEEEE4UserEEPvEENS_22__hash_node_destructorINS6_ISC_EEEEE7releaseB8ue170006Ev, symObjAddr: 0x1FFE8, symBinAddr: 0x100024064, symSize: 0x20C }
  - { offsetInCU: 0x2229B, offset: 0x2229B, size: 0x8, addend: 0x0, symName: __ZNSt3__110unique_ptrINS_11__hash_nodeINS_17__hash_value_typeINS_12basic_stringIcNS_11char_traitsIcEENS_9allocatorIcEEEE4UserEEPvEENS_22__hash_node_destructorINS6_ISC_EEEEED1B8ue170006Ev, symObjAddr: 0x201F4, symBinAddr: 0x100024270, symSize: 0x78 }
  - { offsetInCU: 0x222C5, offset: 0x222C5, size: 0x8, addend: 0x0, symName: __ZNSt3__115__hash_iteratorIPNS_11__hash_nodeINS_17__hash_value_typeINS_12basic_stringIcNS_11char_traitsIcEENS_9allocatorIcEEEE4UserEEPvEEEC1B8ue170006EPNS_16__hash_node_baseISD_EE, symObjAddr: 0x2026C, symBinAddr: 0x1000242E8, symSize: 0x80 }
  - { offsetInCU: 0x22304, offset: 0x22304, size: 0x8, addend: 0x0, symName: __ZNSt3__14pairINS_15__hash_iteratorIPNS_11__hash_nodeINS_17__hash_value_typeINS_12basic_stringIcNS_11char_traitsIcEENS_9allocatorIcEEEE4UserEEPvEEEEbEC1B8ue170006ISF_RbLSC_0EEEOT_OT0_, symObjAddr: 0x202EC, symBinAddr: 0x100024368, symSize: 0x88 }
  - { offsetInCU: 0x22362, offset: 0x22362, size: 0x8, addend: 0x0, symName: __ZNSt3__117__compressed_pairImNS_22__unordered_map_hasherINS_12basic_stringIcNS_11char_traitsIcEENS_9allocatorIcEEEENS_17__hash_value_typeIS7_4UserEENS_4hashIS7_EENS_8equal_toIS7_EELb1EEEE6secondB8ue170006Ev, symObjAddr: 0x20374, symBinAddr: 0x1000243F0, symSize: 0x108 }
  - { offsetInCU: 0x22388, offset: 0x22388, size: 0x8, addend: 0x0, symName: __ZNSt3__122__compressed_pair_elemINS_22__unordered_map_hasherINS_12basic_stringIcNS_11char_traitsIcEENS_9allocatorIcEEEENS_17__hash_value_typeIS7_4UserEENS_4hashIS7_EENS_8equal_toIS7_EELb1EEELi1ELb1EE5__getB8ue170006Ev, symObjAddr: 0x2047C, symBinAddr: 0x1000244F8, symSize: 0x74 }
  - { offsetInCU: 0x223AE, offset: 0x223AE, size: 0x8, addend: 0x0, symName: __ZNKSt3__113__string_hashIcNS_9allocatorIcEEEclB8ue170006ERKNS_12basic_stringIcNS_11char_traitsIcEES2_EE, symObjAddr: 0x204F0, symBinAddr: 0x10002456C, symSize: 0x1EC }
  - { offsetInCU: 0x223E3, offset: 0x223E3, size: 0x8, addend: 0x0, symName: __ZNKSt3__112basic_stringIcNS_11char_traitsIcEENS_9allocatorIcEEE4dataB8ue170006Ev, symObjAddr: 0x208C8, symBinAddr: 0x100024944, symSize: 0x70 }
  - { offsetInCU: 0x22409, offset: 0x22409, size: 0x8, addend: 0x0, symName: __ZNKSt3__112basic_stringIcNS_11char_traitsIcEENS_9allocatorIcEEE4sizeB8ue170006Ev, symObjAddr: 0x20938, symBinAddr: 0x1000249B4, symSize: 0x98 }
  - { offsetInCU: 0x2242F, offset: 0x2242F, size: 0x8, addend: 0x0, symName: __ZNKSt3__121__murmur2_or_cityhashImLm64EEclB8ue170006EPKvm, symObjAddr: 0x209D0, symBinAddr: 0x100024A4C, symSize: 0x1C6C }
  - { offsetInCU: 0x224DB, offset: 0x224DB, size: 0x8, addend: 0x0, symName: __ZNSt3__121__murmur2_or_cityhashImLm64EE18__hash_len_0_to_16B8ue170006EPKcm, symObjAddr: 0x2263C, symBinAddr: 0x1000266B8, symSize: 0x88C }
  - { offsetInCU: 0x225B9, offset: 0x225B9, size: 0x8, addend: 0x0, symName: __ZNSt3__121__murmur2_or_cityhashImLm64EE19__hash_len_17_to_32B8ue170006EPKcm, symObjAddr: 0x22EC8, symBinAddr: 0x100026F44, symSize: 0x494 }
  - { offsetInCU: 0x22622, offset: 0x22622, size: 0x8, addend: 0x0, symName: __ZNSt3__121__murmur2_or_cityhashImLm64EE19__hash_len_33_to_64B8ue170006EPKcm, symObjAddr: 0x2335C, symBinAddr: 0x1000273D8, symSize: 0xBEC }
  - { offsetInCU: 0x226D9, offset: 0x226D9, size: 0x8, addend: 0x0, symName: __ZNSt3__121__murmur2_or_cityhashImLm64EE13__hash_len_16B8ue170006Emm, symObjAddr: 0x2415C, symBinAddr: 0x1000281D8, symSize: 0xF0 }
  - { offsetInCU: 0x22734, offset: 0x22734, size: 0x8, addend: 0x0, symName: __ZNSt3__121__murmur2_or_cityhashImLm64EE29__weak_hash_len_32_with_seedsB8ue170006EPKcmm, symObjAddr: 0x2424C, symBinAddr: 0x1000282C8, symSize: 0x42C }
  - { offsetInCU: 0x22776, offset: 0x22776, size: 0x8, addend: 0x0, symName: __ZNSt3__121__murmur2_or_cityhashImLm64EE8__rotateB8ue170006Emi, symObjAddr: 0x24678, symBinAddr: 0x1000286F4, symSize: 0x11C }
  - { offsetInCU: 0x227A7, offset: 0x227A7, size: 0x8, addend: 0x0, symName: __ZNSt3__14pairImmEaSB8ue170006EOS1_, symObjAddr: 0x24794, symBinAddr: 0x100028810, symSize: 0x248 }
  - { offsetInCU: 0x227DC, offset: 0x227DC, size: 0x8, addend: 0x0, symName: __ZNSt3__121__murmur2_or_cityhashImLm64EE11__shift_mixB8ue170006Em, symObjAddr: 0x24B9C, symBinAddr: 0x100028C18, symSize: 0x5C }
  - { offsetInCU: 0x227FF, offset: 0x227FF, size: 0x8, addend: 0x0, symName: __ZNSt3__121__murmur2_or_cityhashImLm64EE22__rotate_by_at_least_1B8ue170006Emi, symObjAddr: 0x24BF8, symBinAddr: 0x100028C74, symSize: 0xF0 }
  - { offsetInCU: 0x22830, offset: 0x22830, size: 0x8, addend: 0x0, symName: __ZNSt3__121__murmur2_or_cityhashImLm64EE29__weak_hash_len_32_with_seedsB8ue170006Emmmmmm, symObjAddr: 0x24F28, symBinAddr: 0x100028FA4, symSize: 0x398 }
  - { offsetInCU: 0x228B4, offset: 0x228B4, size: 0x8, addend: 0x0, symName: __ZNSt3__14pairImmEC1B8ue170006ImmLPv0EEEOT_OT0_, symObjAddr: 0x252C0, symBinAddr: 0x10002933C, symSize: 0x88 }
  - { offsetInCU: 0x22912, offset: 0x22912, size: 0x8, addend: 0x0, symName: __ZNSt3__14pairImmEC2B8ue170006ImmLPv0EEEOT_OT0_, symObjAddr: 0x25348, symBinAddr: 0x1000293C4, symSize: 0x210 }
  - { offsetInCU: 0x22970, offset: 0x22970, size: 0x8, addend: 0x0, symName: __ZNKSt3__112basic_stringIcNS_11char_traitsIcEENS_9allocatorIcEEE13__get_pointerB8ue170006Ev, symObjAddr: 0x2556C, symBinAddr: 0x1000295E8, symSize: 0x98 }
  - { offsetInCU: 0x22996, offset: 0x22996, size: 0x8, addend: 0x0, symName: __ZNKSt3__112basic_stringIcNS_11char_traitsIcEENS_9allocatorIcEEE9__is_longB8ue170006Ev, symObjAddr: 0x25604, symBinAddr: 0x100029680, symSize: 0x1FC }
  - { offsetInCU: 0x229BC, offset: 0x229BC, size: 0x8, addend: 0x0, symName: __ZNKSt3__112basic_stringIcNS_11char_traitsIcEENS_9allocatorIcEEE18__get_long_pointerB8ue170006Ev, symObjAddr: 0x25800, symBinAddr: 0x10002987C, symSize: 0x208 }
  - { offsetInCU: 0x229E2, offset: 0x229E2, size: 0x8, addend: 0x0, symName: __ZNKSt3__112basic_stringIcNS_11char_traitsIcEENS_9allocatorIcEEE19__get_short_pointerB8ue170006Ev, symObjAddr: 0x25A08, symBinAddr: 0x100029A84, symSize: 0x1CC }
  - { offsetInCU: 0x22A08, offset: 0x22A08, size: 0x8, addend: 0x0, symName: __ZNKSt3__117__compressed_pairINS_12basic_stringIcNS_11char_traitsIcEENS_9allocatorIcEEE5__repES5_E5firstB8ue170006Ev, symObjAddr: 0x25BD4, symBinAddr: 0x100029C50, symSize: 0x124 }
  - { offsetInCU: 0x22A2E, offset: 0x22A2E, size: 0x8, addend: 0x0, symName: __ZNKSt3__122__compressed_pair_elemINS_12basic_stringIcNS_11char_traitsIcEENS_9allocatorIcEEE5__repELi0ELb0EE5__getB8ue170006Ev, symObjAddr: 0x25CF8, symBinAddr: 0x100029D74, symSize: 0xAC }
  - { offsetInCU: 0x22A54, offset: 0x22A54, size: 0x8, addend: 0x0, symName: __ZNSt3__114pointer_traitsIPKcE10pointer_toB8ue170006ERS1_, symObjAddr: 0x25DA4, symBinAddr: 0x100029E20, symSize: 0x14 }
  - { offsetInCU: 0x22A77, offset: 0x22A77, size: 0x8, addend: 0x0, symName: __ZNKSt3__112basic_stringIcNS_11char_traitsIcEENS_9allocatorIcEEE15__get_long_sizeB8ue170006Ev, symObjAddr: 0x25DB8, symBinAddr: 0x100029E34, symSize: 0x210 }
  - { offsetInCU: 0x22A9D, offset: 0x22A9D, size: 0x8, addend: 0x0, symName: __ZNKSt3__112basic_stringIcNS_11char_traitsIcEENS_9allocatorIcEEE16__get_short_sizeB8ue170006Ev, symObjAddr: 0x25FC8, symBinAddr: 0x10002A044, symSize: 0x1F8 }
  - { offsetInCU: 0x22AC3, offset: 0x22AC3, size: 0x8, addend: 0x0, symName: __ZNKSt3__110unique_ptrIA_PNS_16__hash_node_baseIPNS_11__hash_nodeINS_17__hash_value_typeINS_12basic_stringIcNS_11char_traitsIcEENS_9allocatorIcEEEE4UserEEPvEEEENS_25__bucket_list_deallocatorINS7_ISG_EEEEE11get_deleterB8ue170006Ev, symObjAddr: 0x261C0, symBinAddr: 0x10002A23C, symSize: 0xF8 }
  - { offsetInCU: 0x22AE9, offset: 0x22AE9, size: 0x8, addend: 0x0, symName: __ZNKSt3__125__bucket_list_deallocatorINS_9allocatorIPNS_16__hash_node_baseIPNS_11__hash_nodeINS_17__hash_value_typeINS_12basic_stringIcNS_11char_traitsIcEENS1_IcEEEE4UserEEPvEEEEEEE4sizeB8ue170006Ev, symObjAddr: 0x262B8, symBinAddr: 0x10002A334, symSize: 0x13C }
  - { offsetInCU: 0x22B0F, offset: 0x22B0F, size: 0x8, addend: 0x0, symName: __ZNKSt3__117__compressed_pairIPPNS_16__hash_node_baseIPNS_11__hash_nodeINS_17__hash_value_typeINS_12basic_stringIcNS_11char_traitsIcEENS_9allocatorIcEEEE4UserEEPvEEEENS_25__bucket_list_deallocatorINS7_ISG_EEEEE6secondB8ue170006Ev, symObjAddr: 0x263F4, symBinAddr: 0x10002A470, symSize: 0x12C }
  - { offsetInCU: 0x22B35, offset: 0x22B35, size: 0x8, addend: 0x0, symName: __ZNKSt3__122__compressed_pair_elemINS_25__bucket_list_deallocatorINS_9allocatorIPNS_16__hash_node_baseIPNS_11__hash_nodeINS_17__hash_value_typeINS_12basic_stringIcNS_11char_traitsIcEENS2_IcEEEE4UserEEPvEEEEEEEELi1ELb0EE5__getB8ue170006Ev, symObjAddr: 0x26520, symBinAddr: 0x10002A59C, symSize: 0xAC }
  - { offsetInCU: 0x22B5B, offset: 0x22B5B, size: 0x8, addend: 0x0, symName: __ZNKSt3__117__compressed_pairImNS_9allocatorIPNS_16__hash_node_baseIPNS_11__hash_nodeINS_17__hash_value_typeINS_12basic_stringIcNS_11char_traitsIcEENS1_IcEEEE4UserEEPvEEEEEEE5firstB8ue170006Ev, symObjAddr: 0x265CC, symBinAddr: 0x10002A648, symSize: 0x124 }
  - { offsetInCU: 0x22B81, offset: 0x22B81, size: 0x8, addend: 0x0, symName: __ZNKSt3__122__compressed_pair_elemImLi0ELb0EE5__getB8ue170006Ev, symObjAddr: 0x266F0, symBinAddr: 0x10002A76C, symSize: 0xAC }
  - { offsetInCU: 0x22BA7, offset: 0x22BA7, size: 0x8, addend: 0x0, symName: __ZNKSt3__117__compressed_pairIPPNS_16__hash_node_baseIPNS_11__hash_nodeINS_17__hash_value_typeINS_12basic_stringIcNS_11char_traitsIcEENS_9allocatorIcEEEE4UserEEPvEEEENS_25__bucket_list_deallocatorINS7_ISG_EEEEE5firstB8ue170006Ev, symObjAddr: 0x2679C, symBinAddr: 0x10002A818, symSize: 0x124 }
  - { offsetInCU: 0x22BCD, offset: 0x22BCD, size: 0x8, addend: 0x0, symName: __ZNKSt3__122__compressed_pair_elemIPPNS_16__hash_node_baseIPNS_11__hash_nodeINS_17__hash_value_typeINS_12basic_stringIcNS_11char_traitsIcEENS_9allocatorIcEEEE4UserEEPvEEEELi0ELb0EE5__getB8ue170006Ev, symObjAddr: 0x268C0, symBinAddr: 0x10002A93C, symSize: 0xAC }
  - { offsetInCU: 0x22BF3, offset: 0x22BF3, size: 0x8, addend: 0x0, symName: __ZNSt3__117__compressed_pairIfNS_21__unordered_map_equalINS_12basic_stringIcNS_11char_traitsIcEENS_9allocatorIcEEEENS_17__hash_value_typeIS7_4UserEENS_8equal_toIS7_EENS_4hashIS7_EELb1EEEE6secondB8ue170006Ev, symObjAddr: 0x2696C, symBinAddr: 0x10002A9E8, symSize: 0x108 }
  - { offsetInCU: 0x22C19, offset: 0x22C19, size: 0x8, addend: 0x0, symName: __ZNSt3__122__compressed_pair_elemINS_21__unordered_map_equalINS_12basic_stringIcNS_11char_traitsIcEENS_9allocatorIcEEEENS_17__hash_value_typeIS7_4UserEENS_8equal_toIS7_EENS_4hashIS7_EELb1EEELi1ELb1EE5__getB8ue170006Ev, symObjAddr: 0x26A74, symBinAddr: 0x10002AAF0, symSize: 0x74 }
  - { offsetInCU: 0x22C3F, offset: 0x22C3F, size: 0x8, addend: 0x0, symName: __ZNKSt3__18equal_toINS_12basic_stringIcNS_11char_traitsIcEENS_9allocatorIcEEEEEclB8ue170006ERKS6_S9_, symObjAddr: 0x26AE8, symBinAddr: 0x10002AB64, symSize: 0xF0 }
  - { offsetInCU: 0x22C83, offset: 0x22C83, size: 0x8, addend: 0x0, symName: __ZNKSt3__117__hash_value_typeINS_12basic_stringIcNS_11char_traitsIcEENS_9allocatorIcEEEE4UserE11__get_valueB8ue170006Ev, symObjAddr: 0x26BD8, symBinAddr: 0x10002AC54, symSize: 0xB4 }
  - { offsetInCU: 0x22CA9, offset: 0x22CA9, size: 0x8, addend: 0x0, symName: __ZNSt3__111char_traitsIcE7compareB8ue170006EPKcS3_m, symObjAddr: 0x270E4, symBinAddr: 0x10002B160, symSize: 0x34 }
  - { offsetInCU: 0x22CE8, offset: 0x22CE8, size: 0x8, addend: 0x0, symName: __ZNSt3__114pointer_traitsIPNS_16__hash_node_baseIPNS_11__hash_nodeINS_17__hash_value_typeINS_12basic_stringIcNS_11char_traitsIcEENS_9allocatorIcEEEE4UserEEPvEEEEE10pointer_toB8ue170006ERSF_, symObjAddr: 0x27150, symBinAddr: 0x10002B1CC, symSize: 0x14 }
  - { offsetInCU: 0x22D0B, offset: 0x22D0B, size: 0x8, addend: 0x0, symName: __ZNSt3__112__hash_tableINS_17__hash_value_typeINS_12basic_stringIcNS_11char_traitsIcEENS_9allocatorIcEEEE4UserEENS_22__unordered_map_hasherIS7_S9_NS_4hashIS7_EENS_8equal_toIS7_EELb1EEENS_21__unordered_map_equalIS7_S9_SE_SC_Lb1EEENS5_IS9_EEE12__node_allocB8ue170006Ev, symObjAddr: 0x27164, symBinAddr: 0x10002B1E0, symSize: 0xE4 }
  - { offsetInCU: 0x22D31, offset: 0x22D31, size: 0x8, addend: 0x0, symName: __ZNSt3__116allocator_traitsINS_9allocatorINS_11__hash_nodeINS_17__hash_value_typeINS_12basic_stringIcNS_11char_traitsIcEENS1_IcEEEE4UserEEPvEEEEE8allocateB8ue170006ERSD_m, symObjAddr: 0x27248, symBinAddr: 0x10002B2C4, symSize: 0x2C }
  - { offsetInCU: 0x22D64, offset: 0x22D64, size: 0x8, addend: 0x0, symName: __ZNSt3__122__hash_node_destructorINS_9allocatorINS_11__hash_nodeINS_17__hash_value_typeINS_12basic_stringIcNS_11char_traitsIcEENS1_IcEEEE4UserEEPvEEEEEC1B8ue170006ERSD_b, symObjAddr: 0x27274, symBinAddr: 0x10002B2F0, symSize: 0xCC }
  - { offsetInCU: 0x22DB2, offset: 0x22DB2, size: 0x8, addend: 0x0, symName: __ZNSt3__110unique_ptrINS_11__hash_nodeINS_17__hash_value_typeINS_12basic_stringIcNS_11char_traitsIcEENS_9allocatorIcEEEE4UserEEPvEENS_22__hash_node_destructorINS6_ISC_EEEEEC1B8ue170006ILb1EvEEPSC_NS_16__dependent_typeINS_27__unique_ptr_deleter_sfinaeISF_EEXT_EE20__good_rval_ref_typeE, symObjAddr: 0x27340, symBinAddr: 0x10002B3BC, symSize: 0x88 }
  - { offsetInCU: 0x22E03, offset: 0x22E03, size: 0x8, addend: 0x0, symName: __ZNSt3__116allocator_traitsINS_9allocatorINS_11__hash_nodeINS_17__hash_value_typeINS_12basic_stringIcNS_11char_traitsIcEENS1_IcEEEE4UserEEPvEEEEE9constructB8ue170006INS_4pairIKS8_S9_EEJRKNS_21piecewise_construct_tENS_5tupleIJOS8_EEENSM_IJEEEEvEEvRSD_PT_DpOT0_, symObjAddr: 0x273C8, symBinAddr: 0x10002B444, symSize: 0xF4 }
  - { offsetInCU: 0x22E82, offset: 0x22E82, size: 0x8, addend: 0x0, symName: __ZNSt3__122__hash_key_value_typesINS_17__hash_value_typeINS_12basic_stringIcNS_11char_traitsIcEENS_9allocatorIcEEEE4UserEEE9__get_ptrB8ue170006ERS9_, symObjAddr: 0x274BC, symBinAddr: 0x10002B538, symSize: 0x50 }
  - { offsetInCU: 0x22EA5, offset: 0x22EA5, size: 0x8, addend: 0x0, symName: __ZNSt3__110unique_ptrINS_11__hash_nodeINS_17__hash_value_typeINS_12basic_stringIcNS_11char_traitsIcEENS_9allocatorIcEEEE4UserEEPvEENS_22__hash_node_destructorINS6_ISC_EEEEE11get_deleterB8ue170006Ev, symObjAddr: 0x2750C, symBinAddr: 0x10002B588, symSize: 0xF8 }
  - { offsetInCU: 0x22ECB, offset: 0x22ECB, size: 0x8, addend: 0x0, symName: __ZNSt3__117__compressed_pairINS_16__hash_node_baseIPNS_11__hash_nodeINS_17__hash_value_typeINS_12basic_stringIcNS_11char_traitsIcEENS_9allocatorIcEEEE4UserEEPvEEEENS7_ISD_EEE6secondB8ue170006Ev, symObjAddr: 0x27604, symBinAddr: 0x10002B680, symSize: 0x108 }
  - { offsetInCU: 0x22EF1, offset: 0x22EF1, size: 0x8, addend: 0x0, symName: __ZNSt3__122__compressed_pair_elemINS_9allocatorINS_11__hash_nodeINS_17__hash_value_typeINS_12basic_stringIcNS_11char_traitsIcEENS1_IcEEEE4UserEEPvEEEELi1ELb1EE5__getB8ue170006Ev, symObjAddr: 0x2770C, symBinAddr: 0x10002B788, symSize: 0x74 }
  - { offsetInCU: 0x22F17, offset: 0x22F17, size: 0x8, addend: 0x0, symName: __ZNSt3__19allocatorINS_11__hash_nodeINS_17__hash_value_typeINS_12basic_stringIcNS_11char_traitsIcEENS0_IcEEEE4UserEEPvEEE8allocateB8ue170006Em, symObjAddr: 0x27780, symBinAddr: 0x10002B7FC, symSize: 0xD0 }
  - { offsetInCU: 0x22F56, offset: 0x22F56, size: 0x8, addend: 0x0, symName: __ZNSt3__116allocator_traitsINS_9allocatorINS_11__hash_nodeINS_17__hash_value_typeINS_12basic_stringIcNS_11char_traitsIcEENS1_IcEEEE4UserEEPvEEEEE8max_sizeB8ue170006ISD_vEEmRKSD_, symObjAddr: 0x27850, symBinAddr: 0x10002B8CC, symSize: 0x24 }
  - { offsetInCU: 0x22F84, offset: 0x22F84, size: 0x8, addend: 0x0, symName: __ZNKSt3__19allocatorINS_11__hash_nodeINS_17__hash_value_typeINS_12basic_stringIcNS_11char_traitsIcEENS0_IcEEEE4UserEEPvEEE8max_sizeB8ue170006Ev, symObjAddr: 0x27950, symBinAddr: 0x10002B9CC, symSize: 0x58 }
  - { offsetInCU: 0x22FAA, offset: 0x22FAA, size: 0x8, addend: 0x0, symName: __ZNSt3__122__hash_node_destructorINS_9allocatorINS_11__hash_nodeINS_17__hash_value_typeINS_12basic_stringIcNS_11char_traitsIcEENS1_IcEEEE4UserEEPvEEEEEC2B8ue170006ERSD_b, symObjAddr: 0x27A58, symBinAddr: 0x10002BAD4, symSize: 0x1A0 }
  - { offsetInCU: 0x22FF2, offset: 0x22FF2, size: 0x8, addend: 0x0, symName: __ZNSt3__110unique_ptrINS_11__hash_nodeINS_17__hash_value_typeINS_12basic_stringIcNS_11char_traitsIcEENS_9allocatorIcEEEE4UserEEPvEENS_22__hash_node_destructorINS6_ISC_EEEEEC2B8ue170006ILb1EvEEPSC_NS_16__dependent_typeINS_27__unique_ptr_deleter_sfinaeISF_EEXT_EE20__good_rval_ref_typeE, symObjAddr: 0x27BF8, symBinAddr: 0x10002BC74, symSize: 0x2BC }
  - { offsetInCU: 0x23049, offset: 0x23049, size: 0x8, addend: 0x0, symName: __ZNSt3__117__compressed_pairIPNS_11__hash_nodeINS_17__hash_value_typeINS_12basic_stringIcNS_11char_traitsIcEENS_9allocatorIcEEEE4UserEEPvEENS_22__hash_node_destructorINS6_ISC_EEEEEC1B8ue170006IRSD_SG_EEOT_OT0_, symObjAddr: 0x27EB4, symBinAddr: 0x10002BF30, symSize: 0x88 }
  - { offsetInCU: 0x230A1, offset: 0x230A1, size: 0x8, addend: 0x0, symName: __ZNSt3__117__compressed_pairIPNS_11__hash_nodeINS_17__hash_value_typeINS_12basic_stringIcNS_11char_traitsIcEENS_9allocatorIcEEEE4UserEEPvEENS_22__hash_node_destructorINS6_ISC_EEEEEC2B8ue170006IRSD_SG_EEOT_OT0_, symObjAddr: 0x27F3C, symBinAddr: 0x10002BFB8, symSize: 0x1B4 }
  - { offsetInCU: 0x230F9, offset: 0x230F9, size: 0x8, addend: 0x0, symName: __ZNSt3__122__compressed_pair_elemIPNS_11__hash_nodeINS_17__hash_value_typeINS_12basic_stringIcNS_11char_traitsIcEENS_9allocatorIcEEEE4UserEEPvEELi0ELb0EEC2B8ue170006IRSD_vEEOT_, symObjAddr: 0x280F0, symBinAddr: 0x10002C16C, symSize: 0x144 }
  - { offsetInCU: 0x2313B, offset: 0x2313B, size: 0x8, addend: 0x0, symName: __ZNSt3__122__compressed_pair_elemINS_22__hash_node_destructorINS_9allocatorINS_11__hash_nodeINS_17__hash_value_typeINS_12basic_stringIcNS_11char_traitsIcEENS2_IcEEEE4UserEEPvEEEEEELi1ELb0EEC2B8ue170006ISF_vEEOT_, symObjAddr: 0x28234, symBinAddr: 0x10002C2B0, symSize: 0x84 }
  - { offsetInCU: 0x2317D, offset: 0x2317D, size: 0x8, addend: 0x0, symName: __ZNSt3__19allocatorINS_11__hash_nodeINS_17__hash_value_typeINS_12basic_stringIcNS_11char_traitsIcEENS0_IcEEEE4UserEEPvEEE9constructB8ue170006INS_4pairIKS7_S8_EEJRKNS_21piecewise_construct_tENS_5tupleIJOS7_EEENSK_IJEEEEEEvPT_DpOT0_, symObjAddr: 0x282B8, symBinAddr: 0x10002C334, symSize: 0x284 }
  - { offsetInCU: 0x231FE, offset: 0x231FE, size: 0x8, addend: 0x0, symName: __ZNSt3__14pairIKNS_12basic_stringIcNS_11char_traitsIcEENS_9allocatorIcEEEE4UserEC1B8ue170006IJOS6_EJEEENS_21piecewise_construct_tENS_5tupleIJDpT_EEENSD_IJDpT0_EEE, symObjAddr: 0x2853C, symBinAddr: 0x10002C5B8, symSize: 0x28C }
  - { offsetInCU: 0x2326F, offset: 0x2326F, size: 0x8, addend: 0x0, symName: __ZNSt3__14pairIKNS_12basic_stringIcNS_11char_traitsIcEENS_9allocatorIcEEEE4UserEC1B8ue170006IJOS6_EJEJLm0EEJEEENS_21piecewise_construct_tERNS_5tupleIJDpT_EEERNSD_IJDpT0_EEENS_15__tuple_indicesIJXspT1_EEEENSM_IJXspT2_EEEE, symObjAddr: 0x287C8, symBinAddr: 0x10002C844, symSize: 0x88 }
  - { offsetInCU: 0x232FF, offset: 0x232FF, size: 0x8, addend: 0x0, symName: __ZNSt3__14pairIKNS_12basic_stringIcNS_11char_traitsIcEENS_9allocatorIcEEEE4UserEC2B8ue170006IJOS6_EJEJLm0EEJEEENS_21piecewise_construct_tERNS_5tupleIJDpT_EEERNSD_IJDpT0_EEENS_15__tuple_indicesIJXspT1_EEEENSM_IJXspT2_EEEE, symObjAddr: 0x28850, symBinAddr: 0x10002C8CC, symSize: 0x14C }
  - { offsetInCU: 0x2338F, offset: 0x2338F, size: 0x8, addend: 0x0, symName: __ZNSt3__112basic_stringIcNS_11char_traitsIcEENS_9allocatorIcEEEC1B8ue170006EOS5_, symObjAddr: 0x28A7C, symBinAddr: 0x10002CAF8, symSize: 0x80 }
  - { offsetInCU: 0x233C8, offset: 0x233C8, size: 0x8, addend: 0x0, symName: __ZN4UserC1Ev, symObjAddr: 0x28AFC, symBinAddr: 0x10002CB78, symSize: 0x78 }
  - { offsetInCU: 0x233F2, offset: 0x233F2, size: 0x8, addend: 0x0, symName: __ZNSt3__112__tuple_leafILm0EONS_12basic_stringIcNS_11char_traitsIcEENS_9allocatorIcEEEELb0EE3getB8ue170006Ev, symObjAddr: 0x28B74, symBinAddr: 0x10002CBF0, symSize: 0xF4 }
  - { offsetInCU: 0x23418, offset: 0x23418, size: 0x8, addend: 0x0, symName: __ZNSt3__112basic_stringIcNS_11char_traitsIcEENS_9allocatorIcEEEC2B8ue170006EOS5_, symObjAddr: 0x28C68, symBinAddr: 0x10002CCE4, symSize: 0xCC }
  - { offsetInCU: 0x23451, offset: 0x23451, size: 0x8, addend: 0x0, symName: __ZNSt3__112basic_stringIcNS_11char_traitsIcEENS_9allocatorIcEEE14__default_initB8ue170006Ev, symObjAddr: 0x28D34, symBinAddr: 0x10002CDB0, symSize: 0x2B4 }
  - { offsetInCU: 0x23478, offset: 0x23478, size: 0x8, addend: 0x0, symName: __ZNSt3__117__compressed_pairINS_12basic_stringIcNS_11char_traitsIcEENS_9allocatorIcEEE5__repES5_E5firstB8ue170006Ev, symObjAddr: 0x28FE8, symBinAddr: 0x10002D064, symSize: 0x124 }
  - { offsetInCU: 0x2349E, offset: 0x2349E, size: 0x8, addend: 0x0, symName: __ZNSt3__122__compressed_pair_elemINS_12basic_stringIcNS_11char_traitsIcEENS_9allocatorIcEEE5__repELi0ELb0EE5__getB8ue170006Ev, symObjAddr: 0x2910C, symBinAddr: 0x10002D188, symSize: 0xAC }
  - { offsetInCU: 0x234C4, offset: 0x234C4, size: 0x8, addend: 0x0, symName: __ZN4UserC2Ev, symObjAddr: 0x291B8, symBinAddr: 0x10002D234, symSize: 0x25C }
  - { offsetInCU: 0x234EE, offset: 0x234EE, size: 0x8, addend: 0x0, symName: __ZNSt3__112basic_stringIcNS_11char_traitsIcEENS_9allocatorIcEEEaSB8ue170006EPKc, symObjAddr: 0x29414, symBinAddr: 0x10002D490, symSize: 0xBC }
  - { offsetInCU: 0x23523, offset: 0x23523, size: 0x8, addend: 0x0, symName: __ZNSt3__16vectorI11TransactionNS_9allocatorIS1_EEED1B8ue170006Ev, symObjAddr: 0x294D0, symBinAddr: 0x10002D54C, symSize: 0x78 }
  - { offsetInCU: 0x2354D, offset: 0x2354D, size: 0x8, addend: 0x0, symName: __ZNSt3__113unordered_setINS_12basic_stringIcNS_11char_traitsIcEENS_9allocatorIcEEEENS_4hashIS6_EENS_8equal_toIS6_EENS4_IS6_EEED1B8ue170006Ev, symObjAddr: 0x29548, symBinAddr: 0x10002D5C4, symSize: 0x78 }
  - { offsetInCU: 0x23577, offset: 0x23577, size: 0x8, addend: 0x0, symName: __ZNSt3__16vectorI11TransactionNS_9allocatorIS1_EEED2B8ue170006Ev, symObjAddr: 0x295C0, symBinAddr: 0x10002D63C, symSize: 0x298 }
  - { offsetInCU: 0x235A2, offset: 0x235A2, size: 0x8, addend: 0x0, symName: __ZNSt3__16vectorI11TransactionNS_9allocatorIS1_EEE16__destroy_vectorC1B8ue170006ERS4_, symObjAddr: 0x29858, symBinAddr: 0x10002D8D4, symSize: 0x80 }
  - { offsetInCU: 0x235DB, offset: 0x235DB, size: 0x8, addend: 0x0, symName: __ZNSt3__16vectorI11TransactionNS_9allocatorIS1_EEE16__destroy_vectorclB8ue170006Ev, symObjAddr: 0x298D8, symBinAddr: 0x10002D954, symSize: 0x43C }
  - { offsetInCU: 0x23601, offset: 0x23601, size: 0x8, addend: 0x0, symName: __ZNSt3__16vectorI11TransactionNS_9allocatorIS1_EEE16__destroy_vectorC2B8ue170006ERS4_, symObjAddr: 0x29D14, symBinAddr: 0x10002DD90, symSize: 0x108 }
  - { offsetInCU: 0x2363A, offset: 0x2363A, size: 0x8, addend: 0x0, symName: __ZNSt3__16vectorI11TransactionNS_9allocatorIS1_EEE7__clearB8ue170006Ev, symObjAddr: 0x29E1C, symBinAddr: 0x10002DE98, symSize: 0xB0 }
  - { offsetInCU: 0x23660, offset: 0x23660, size: 0x8, addend: 0x0, symName: __ZNKSt3__16vectorI11TransactionNS_9allocatorIS1_EEE17__annotate_deleteB8ue170006Ev, symObjAddr: 0x29ECC, symBinAddr: 0x10002DF48, symSize: 0x388 }
  - { offsetInCU: 0x23686, offset: 0x23686, size: 0x8, addend: 0x0, symName: __ZNSt3__116allocator_traitsINS_9allocatorI11TransactionEEE10deallocateB8ue170006ERS3_PS2_m, symObjAddr: 0x2A254, symBinAddr: 0x10002E2D0, symSize: 0x34 }
  - { offsetInCU: 0x236C8, offset: 0x236C8, size: 0x8, addend: 0x0, symName: __ZNSt3__16vectorI11TransactionNS_9allocatorIS1_EEE7__allocB8ue170006Ev, symObjAddr: 0x2A288, symBinAddr: 0x10002E304, symSize: 0xE4 }
  - { offsetInCU: 0x236EE, offset: 0x236EE, size: 0x8, addend: 0x0, symName: __ZNKSt3__16vectorI11TransactionNS_9allocatorIS1_EEE8capacityB8ue170006Ev, symObjAddr: 0x2A36C, symBinAddr: 0x10002E3E8, symSize: 0x144 }
  - { offsetInCU: 0x23714, offset: 0x23714, size: 0x8, addend: 0x0, symName: __ZNSt3__16vectorI11TransactionNS_9allocatorIS1_EEE22__base_destruct_at_endB8ue170006EPS1_, symObjAddr: 0x2A4B0, symBinAddr: 0x10002E52C, symSize: 0x1FC }
  - { offsetInCU: 0x23758, offset: 0x23758, size: 0x8, addend: 0x0, symName: __ZNSt3__116allocator_traitsINS_9allocatorI11TransactionEEE7destroyB8ue170006IS2_vEEvRS3_PT_, symObjAddr: 0x2A6AC, symBinAddr: 0x10002E728, symSize: 0x2C }
  - { offsetInCU: 0x23795, offset: 0x23795, size: 0x8, addend: 0x0, symName: __ZNSt3__19allocatorI11TransactionE7destroyB8ue170006EPS1_, symObjAddr: 0x2A6EC, symBinAddr: 0x10002E768, symSize: 0x9C }
  - { offsetInCU: 0x237C9, offset: 0x237C9, size: 0x8, addend: 0x0, symName: __ZN11TransactionD1Ev, symObjAddr: 0x2A788, symBinAddr: 0x10002E804, symSize: 0x78 }
  - { offsetInCU: 0x237F5, offset: 0x237F5, size: 0x8, addend: 0x0, symName: __ZN11TransactionD2Ev, symObjAddr: 0x2A800, symBinAddr: 0x10002E87C, symSize: 0xA0 }
  - { offsetInCU: 0x23821, offset: 0x23821, size: 0x8, addend: 0x0, symName: __ZNKSt3__16vectorI11TransactionNS_9allocatorIS1_EEE31__annotate_contiguous_containerEPKvS6_S6_S6_, symObjAddr: 0x2A8A0, symBinAddr: 0x10002E91C, symSize: 0x9C }
  - { offsetInCU: 0x23883, offset: 0x23883, size: 0x8, addend: 0x0, symName: __ZNKSt3__16vectorI11TransactionNS_9allocatorIS1_EEE4dataB8ue170006Ev, symObjAddr: 0x2A93C, symBinAddr: 0x10002E9B8, symSize: 0xB0 }
  - { offsetInCU: 0x238A9, offset: 0x238A9, size: 0x8, addend: 0x0, symName: __ZNKSt3__16vectorI11TransactionNS_9allocatorIS1_EEE4sizeB8ue170006Ev, symObjAddr: 0x2A9EC, symBinAddr: 0x10002EA68, symSize: 0xF8 }
  - { offsetInCU: 0x238CF, offset: 0x238CF, size: 0x8, addend: 0x0, symName: __ZNSt3__19allocatorI11TransactionE10deallocateB8ue170006EPS1_m, symObjAddr: 0x2AAE4, symBinAddr: 0x10002EB60, symSize: 0x7C }
  - { offsetInCU: 0x23911, offset: 0x23911, size: 0x8, addend: 0x0, symName: __ZNSt3__117__compressed_pairIP11TransactionNS_9allocatorIS1_EEE6secondB8ue170006Ev, symObjAddr: 0x2AC68, symBinAddr: 0x10002ECE4, symSize: 0x108 }
  - { offsetInCU: 0x23937, offset: 0x23937, size: 0x8, addend: 0x0, symName: __ZNSt3__122__compressed_pair_elemINS_9allocatorI11TransactionEELi1ELb1EE5__getB8ue170006Ev, symObjAddr: 0x2AD70, symBinAddr: 0x10002EDEC, symSize: 0x74 }
  - { offsetInCU: 0x2395D, offset: 0x2395D, size: 0x8, addend: 0x0, symName: __ZNKSt3__16vectorI11TransactionNS_9allocatorIS1_EEE9__end_capB8ue170006Ev, symObjAddr: 0x2ADE4, symBinAddr: 0x10002EE60, symSize: 0x100 }
  - { offsetInCU: 0x23983, offset: 0x23983, size: 0x8, addend: 0x0, symName: __ZNKSt3__117__compressed_pairIP11TransactionNS_9allocatorIS1_EEE5firstB8ue170006Ev, symObjAddr: 0x2AEE4, symBinAddr: 0x10002EF60, symSize: 0x124 }
  - { offsetInCU: 0x239A9, offset: 0x239A9, size: 0x8, addend: 0x0, symName: __ZNKSt3__122__compressed_pair_elemIP11TransactionLi0ELb0EE5__getB8ue170006Ev, symObjAddr: 0x2B008, symBinAddr: 0x10002F084, symSize: 0xAC }
  - { offsetInCU: 0x239CF, offset: 0x239CF, size: 0x8, addend: 0x0, symName: __ZNSt3__113unordered_setINS_12basic_stringIcNS_11char_traitsIcEENS_9allocatorIcEEEENS_4hashIS6_EENS_8equal_toIS6_EENS4_IS6_EEED2B8ue170006Ev, symObjAddr: 0x2B0B4, symBinAddr: 0x10002F130, symSize: 0x78 }
  - { offsetInCU: 0x239F9, offset: 0x239F9, size: 0x8, addend: 0x0, symName: __ZNSt3__112__hash_tableINS_12basic_stringIcNS_11char_traitsIcEENS_9allocatorIcEEEENS_4hashIS6_EENS_8equal_toIS6_EENS4_IS6_EEED1Ev, symObjAddr: 0x2B12C, symBinAddr: 0x10002F1A8, symSize: 0x78 }
  - { offsetInCU: 0x23A25, offset: 0x23A25, size: 0x8, addend: 0x0, symName: __ZNSt3__112__hash_tableINS_12basic_stringIcNS_11char_traitsIcEENS_9allocatorIcEEEENS_4hashIS6_EENS_8equal_toIS6_EENS4_IS6_EEED2Ev, symObjAddr: 0x2B1A4, symBinAddr: 0x10002F220, symSize: 0x1A4 }
  - { offsetInCU: 0x23A51, offset: 0x23A51, size: 0x8, addend: 0x0, symName: __ZNSt3__112__hash_tableINS_12basic_stringIcNS_11char_traitsIcEENS_9allocatorIcEEEENS_4hashIS6_EENS_8equal_toIS6_EENS4_IS6_EEE17__deallocate_nodeEPNS_16__hash_node_baseIPNS_11__hash_nodeIS6_PvEEEE, symObjAddr: 0x2B348, symBinAddr: 0x10002F3C4, symSize: 0x31C }
  - { offsetInCU: 0x23ABB, offset: 0x23ABB, size: 0x8, addend: 0x0, symName: __ZNSt3__117__compressed_pairINS_16__hash_node_baseIPNS_11__hash_nodeINS_12basic_stringIcNS_11char_traitsIcEENS_9allocatorIcEEEEPvEEEENS6_ISA_EEE5firstB8ue170006Ev, symObjAddr: 0x2B664, symBinAddr: 0x10002F6E0, symSize: 0x124 }
  - { offsetInCU: 0x23AE1, offset: 0x23AE1, size: 0x8, addend: 0x0, symName: __ZNSt3__110unique_ptrIA_PNS_16__hash_node_baseIPNS_11__hash_nodeINS_12basic_stringIcNS_11char_traitsIcEENS_9allocatorIcEEEEPvEEEENS_25__bucket_list_deallocatorINS6_ISD_EEEEED1B8ue170006Ev, symObjAddr: 0x2B788, symBinAddr: 0x10002F804, symSize: 0x78 }
  - { offsetInCU: 0x23B0B, offset: 0x23B0B, size: 0x8, addend: 0x0, symName: __ZNSt3__112__hash_tableINS_12basic_stringIcNS_11char_traitsIcEENS_9allocatorIcEEEENS_4hashIS6_EENS_8equal_toIS6_EENS4_IS6_EEE12__node_allocB8ue170006Ev, symObjAddr: 0x2B800, symBinAddr: 0x10002F87C, symSize: 0xE4 }
  - { offsetInCU: 0x23B31, offset: 0x23B31, size: 0x8, addend: 0x0, symName: __ZNSt3__116__hash_node_baseIPNS_11__hash_nodeINS_12basic_stringIcNS_11char_traitsIcEENS_9allocatorIcEEEEPvEEE8__upcastB8ue170006Ev, symObjAddr: 0x2B8E4, symBinAddr: 0x10002F960, symSize: 0xF8 }
  - { offsetInCU: 0x23B57, offset: 0x23B57, size: 0x8, addend: 0x0, symName: __ZNSt3__116allocator_traitsINS_9allocatorINS_11__hash_nodeINS_12basic_stringIcNS_11char_traitsIcEENS1_IcEEEEPvEEEEE7destroyB8ue170006IS7_vvEEvRSA_PT_, symObjAddr: 0x2B9DC, symBinAddr: 0x10002FA58, symSize: 0x70 }
  - { offsetInCU: 0x23B92, offset: 0x23B92, size: 0x8, addend: 0x0, symName: __ZNSt3__122__hash_key_value_typesINS_12basic_stringIcNS_11char_traitsIcEENS_9allocatorIcEEEEE9__get_ptrB8ue170006ERS6_, symObjAddr: 0x2BA4C, symBinAddr: 0x10002FAC8, symSize: 0x14 }
  - { offsetInCU: 0x23BB5, offset: 0x23BB5, size: 0x8, addend: 0x0, symName: __ZNSt3__116allocator_traitsINS_9allocatorINS_11__hash_nodeINS_12basic_stringIcNS_11char_traitsIcEENS1_IcEEEEPvEEEEE10deallocateB8ue170006ERSA_PS9_m, symObjAddr: 0x2BA60, symBinAddr: 0x10002FADC, symSize: 0x34 }
  - { offsetInCU: 0x23BF7, offset: 0x23BF7, size: 0x8, addend: 0x0, symName: __ZNSt3__117__compressed_pairINS_16__hash_node_baseIPNS_11__hash_nodeINS_12basic_stringIcNS_11char_traitsIcEENS_9allocatorIcEEEEPvEEEENS6_ISA_EEE6secondB8ue170006Ev, symObjAddr: 0x2BA94, symBinAddr: 0x10002FB10, symSize: 0x108 }
  - { offsetInCU: 0x23C1D, offset: 0x23C1D, size: 0x8, addend: 0x0, symName: __ZNSt3__122__compressed_pair_elemINS_9allocatorINS_11__hash_nodeINS_12basic_stringIcNS_11char_traitsIcEENS1_IcEEEEPvEEEELi1ELb1EE5__getB8ue170006Ev, symObjAddr: 0x2BB9C, symBinAddr: 0x10002FC18, symSize: 0x74 }
  - { offsetInCU: 0x23C43, offset: 0x23C43, size: 0x8, addend: 0x0, symName: __ZNSt3__114pointer_traitsIPNS_16__hash_node_baseIPNS_11__hash_nodeINS_12basic_stringIcNS_11char_traitsIcEENS_9allocatorIcEEEEPvEEEEE10pointer_toB8ue170006ERSC_, symObjAddr: 0x2BC10, symBinAddr: 0x10002FC8C, symSize: 0x14 }
  - { offsetInCU: 0x23C66, offset: 0x23C66, size: 0x8, addend: 0x0, symName: __ZNSt3__19allocatorINS_11__hash_nodeINS_12basic_stringIcNS_11char_traitsIcEENS0_IcEEEEPvEEE10deallocateB8ue170006EPS8_m, symObjAddr: 0x2BC24, symBinAddr: 0x10002FCA0, symSize: 0x7C }
  - { offsetInCU: 0x23CA8, offset: 0x23CA8, size: 0x8, addend: 0x0, symName: __ZNSt3__122__compressed_pair_elemINS_16__hash_node_baseIPNS_11__hash_nodeINS_12basic_stringIcNS_11char_traitsIcEENS_9allocatorIcEEEEPvEEEELi0ELb0EE5__getB8ue170006Ev, symObjAddr: 0x2BCA0, symBinAddr: 0x10002FD1C, symSize: 0xAC }
  - { offsetInCU: 0x23CCE, offset: 0x23CCE, size: 0x8, addend: 0x0, symName: __ZNSt3__110unique_ptrIA_PNS_16__hash_node_baseIPNS_11__hash_nodeINS_12basic_stringIcNS_11char_traitsIcEENS_9allocatorIcEEEEPvEEEENS_25__bucket_list_deallocatorINS6_ISD_EEEEED2B8ue170006Ev, symObjAddr: 0x2BD4C, symBinAddr: 0x10002FDC8, symSize: 0x7C }
  - { offsetInCU: 0x23CF8, offset: 0x23CF8, size: 0x8, addend: 0x0, symName: __ZNSt3__110unique_ptrIA_PNS_16__hash_node_baseIPNS_11__hash_nodeINS_12basic_stringIcNS_11char_traitsIcEENS_9allocatorIcEEEEPvEEEENS_25__bucket_list_deallocatorINS6_ISD_EEEEE5resetB8ue170006EDn, symObjAddr: 0x2BDC8, symBinAddr: 0x10002FE44, symSize: 0x2C0 }
  - { offsetInCU: 0x23D39, offset: 0x23D39, size: 0x8, addend: 0x0, symName: __ZNSt3__117__compressed_pairIPPNS_16__hash_node_baseIPNS_11__hash_nodeINS_12basic_stringIcNS_11char_traitsIcEENS_9allocatorIcEEEEPvEEEENS_25__bucket_list_deallocatorINS6_ISD_EEEEE5firstB8ue170006Ev, symObjAddr: 0x2C088, symBinAddr: 0x100030104, symSize: 0x124 }
  - { offsetInCU: 0x23D5F, offset: 0x23D5F, size: 0x8, addend: 0x0, symName: __ZNSt3__117__compressed_pairIPPNS_16__hash_node_baseIPNS_11__hash_nodeINS_12basic_stringIcNS_11char_traitsIcEENS_9allocatorIcEEEEPvEEEENS_25__bucket_list_deallocatorINS6_ISD_EEEEE6secondB8ue170006Ev, symObjAddr: 0x2C1AC, symBinAddr: 0x100030228, symSize: 0x12C }
  - { offsetInCU: 0x23D85, offset: 0x23D85, size: 0x8, addend: 0x0, symName: __ZNSt3__125__bucket_list_deallocatorINS_9allocatorIPNS_16__hash_node_baseIPNS_11__hash_nodeINS_12basic_stringIcNS_11char_traitsIcEENS1_IcEEEEPvEEEEEEEclB8ue170006EPSD_, symObjAddr: 0x2C2D8, symBinAddr: 0x100030354, symSize: 0x140 }
  - { offsetInCU: 0x23DBA, offset: 0x23DBA, size: 0x8, addend: 0x0, symName: __ZNSt3__122__compressed_pair_elemIPPNS_16__hash_node_baseIPNS_11__hash_nodeINS_12basic_stringIcNS_11char_traitsIcEENS_9allocatorIcEEEEPvEEEELi0ELb0EE5__getB8ue170006Ev, symObjAddr: 0x2C418, symBinAddr: 0x100030494, symSize: 0xAC }
  - { offsetInCU: 0x23DE0, offset: 0x23DE0, size: 0x8, addend: 0x0, symName: __ZNSt3__122__compressed_pair_elemINS_25__bucket_list_deallocatorINS_9allocatorIPNS_16__hash_node_baseIPNS_11__hash_nodeINS_12basic_stringIcNS_11char_traitsIcEENS2_IcEEEEPvEEEEEEEELi1ELb0EE5__getB8ue170006Ev, symObjAddr: 0x2C4C4, symBinAddr: 0x100030540, symSize: 0xAC }
  - { offsetInCU: 0x23E06, offset: 0x23E06, size: 0x8, addend: 0x0, symName: __ZNSt3__116allocator_traitsINS_9allocatorIPNS_16__hash_node_baseIPNS_11__hash_nodeINS_12basic_stringIcNS_11char_traitsIcEENS1_IcEEEEPvEEEEEEE10deallocateB8ue170006ERSE_PSD_m, symObjAddr: 0x2C570, symBinAddr: 0x1000305EC, symSize: 0x34 }
  - { offsetInCU: 0x23E48, offset: 0x23E48, size: 0x8, addend: 0x0, symName: __ZNSt3__125__bucket_list_deallocatorINS_9allocatorIPNS_16__hash_node_baseIPNS_11__hash_nodeINS_12basic_stringIcNS_11char_traitsIcEENS1_IcEEEEPvEEEEEEE7__allocB8ue170006Ev, symObjAddr: 0x2C5A4, symBinAddr: 0x100030620, symSize: 0xDC }
  - { offsetInCU: 0x23E6E, offset: 0x23E6E, size: 0x8, addend: 0x0, symName: __ZNSt3__125__bucket_list_deallocatorINS_9allocatorIPNS_16__hash_node_baseIPNS_11__hash_nodeINS_12basic_stringIcNS_11char_traitsIcEENS1_IcEEEEPvEEEEEEE4sizeB8ue170006Ev, symObjAddr: 0x2C680, symBinAddr: 0x1000306FC, symSize: 0xF8 }
  - { offsetInCU: 0x23E94, offset: 0x23E94, size: 0x8, addend: 0x0, symName: __ZNSt3__19allocatorIPNS_16__hash_node_baseIPNS_11__hash_nodeINS_12basic_stringIcNS_11char_traitsIcEENS0_IcEEEEPvEEEEE10deallocateB8ue170006EPSC_m, symObjAddr: 0x2C778, symBinAddr: 0x1000307F4, symSize: 0x78 }
  - { offsetInCU: 0x23ED6, offset: 0x23ED6, size: 0x8, addend: 0x0, symName: __ZNSt3__117__compressed_pairImNS_9allocatorIPNS_16__hash_node_baseIPNS_11__hash_nodeINS_12basic_stringIcNS_11char_traitsIcEENS1_IcEEEEPvEEEEEEE6secondB8ue170006Ev, symObjAddr: 0x2C7F0, symBinAddr: 0x10003086C, symSize: 0x108 }
  - { offsetInCU: 0x23EFC, offset: 0x23EFC, size: 0x8, addend: 0x0, symName: __ZNSt3__122__compressed_pair_elemINS_9allocatorIPNS_16__hash_node_baseIPNS_11__hash_nodeINS_12basic_stringIcNS_11char_traitsIcEENS1_IcEEEEPvEEEEEELi1ELb1EE5__getB8ue170006Ev, symObjAddr: 0x2C8F8, symBinAddr: 0x100030974, symSize: 0x74 }
  - { offsetInCU: 0x23F22, offset: 0x23F22, size: 0x8, addend: 0x0, symName: __ZNSt3__117__compressed_pairImNS_9allocatorIPNS_16__hash_node_baseIPNS_11__hash_nodeINS_12basic_stringIcNS_11char_traitsIcEENS1_IcEEEEPvEEEEEEE5firstB8ue170006Ev, symObjAddr: 0x2C96C, symBinAddr: 0x1000309E8, symSize: 0x124 }
  - { offsetInCU: 0x23F48, offset: 0x23F48, size: 0x8, addend: 0x0, symName: __ZNSt3__122__compressed_pair_elemImLi0ELb0EE5__getB8ue170006Ev, symObjAddr: 0x2CA90, symBinAddr: 0x100030B0C, symSize: 0xAC }
  - { offsetInCU: 0x23F6E, offset: 0x23F6E, size: 0x8, addend: 0x0, symName: __ZNSt3__117__compressed_pairIPNS_11__hash_nodeINS_17__hash_value_typeINS_12basic_stringIcNS_11char_traitsIcEENS_9allocatorIcEEEE4UserEEPvEENS_22__hash_node_destructorINS6_ISC_EEEEE6secondB8ue170006Ev, symObjAddr: 0x2CB3C, symBinAddr: 0x100030BB8, symSize: 0x12C }
  - { offsetInCU: 0x23F94, offset: 0x23F94, size: 0x8, addend: 0x0, symName: __ZNSt3__122__compressed_pair_elemINS_22__hash_node_destructorINS_9allocatorINS_11__hash_nodeINS_17__hash_value_typeINS_12basic_stringIcNS_11char_traitsIcEENS2_IcEEEE4UserEEPvEEEEEELi1ELb0EE5__getB8ue170006Ev, symObjAddr: 0x2CC68, symBinAddr: 0x100030CE4, symSize: 0xAC }
  - { offsetInCU: 0x23FBA, offset: 0x23FBA, size: 0x8, addend: 0x0, symName: __ZNSt3__117__compressed_pairImNS_22__unordered_map_hasherINS_12basic_stringIcNS_11char_traitsIcEENS_9allocatorIcEEEENS_17__hash_value_typeIS7_4UserEENS_4hashIS7_EENS_8equal_toIS7_EELb1EEEE5firstB8ue170006Ev, symObjAddr: 0x2CD14, symBinAddr: 0x100030D90, symSize: 0x124 }
  - { offsetInCU: 0x23FE0, offset: 0x23FE0, size: 0x8, addend: 0x0, symName: __ZNSt3__117__compressed_pairIfNS_21__unordered_map_equalINS_12basic_stringIcNS_11char_traitsIcEENS_9allocatorIcEEEENS_17__hash_value_typeIS7_4UserEENS_8equal_toIS7_EENS_4hashIS7_EELb1EEEE5firstB8ue170006Ev, symObjAddr: 0x2CE38, symBinAddr: 0x100030EB4, symSize: 0x124 }
  - { offsetInCU: 0x24006, offset: 0x24006, size: 0x8, addend: 0x0, symName: __ZNSt3__122__compressed_pair_elemIfLi0ELb0EE5__getB8ue170006Ev, symObjAddr: 0x2CF5C, symBinAddr: 0x100030FD8, symSize: 0xAC }
  - { offsetInCU: 0x2402C, offset: 0x2402C, size: 0x8, addend: 0x0, symName: __ZNSt3__112__hash_tableINS_17__hash_value_typeINS_12basic_stringIcNS_11char_traitsIcEENS_9allocatorIcEEEE4UserEENS_22__unordered_map_hasherIS7_S9_NS_4hashIS7_EENS_8equal_toIS7_EELb1EEENS_21__unordered_map_equalIS7_S9_SE_SC_Lb1EEENS5_IS9_EEE8__rehashILb1EEEvm, symObjAddr: 0x2D008, symBinAddr: 0x100031084, symSize: 0x9CC }
  - { offsetInCU: 0x24082, offset: 0x24082, size: 0x8, addend: 0x0, symName: __ZNSt3__112__hash_tableINS_17__hash_value_typeINS_12basic_stringIcNS_11char_traitsIcEENS_9allocatorIcEEEE4UserEENS_22__unordered_map_hasherIS7_S9_NS_4hashIS7_EENS_8equal_toIS7_EELb1EEENS_21__unordered_map_equalIS7_S9_SE_SC_Lb1EEENS5_IS9_EEE11__do_rehashILb1EEEvm, symObjAddr: 0x2D9D4, symBinAddr: 0x100031A50, symSize: 0x1084 }
  - { offsetInCU: 0x24167, offset: 0x24167, size: 0x8, addend: 0x0, symName: __ZNSt3__110unique_ptrIA_PNS_16__hash_node_baseIPNS_11__hash_nodeINS_17__hash_value_typeINS_12basic_stringIcNS_11char_traitsIcEENS_9allocatorIcEEEE4UserEEPvEEEENS_25__bucket_list_deallocatorINS7_ISG_EEEEE11get_deleterB8ue170006Ev, symObjAddr: 0x2EB24, symBinAddr: 0x100032BA0, symSize: 0xF8 }
  - { offsetInCU: 0x2418D, offset: 0x2418D, size: 0x8, addend: 0x0, symName: __ZNSt3__125__bucket_list_deallocatorINS_9allocatorIPNS_16__hash_node_baseIPNS_11__hash_nodeINS_17__hash_value_typeINS_12basic_stringIcNS_11char_traitsIcEENS1_IcEEEE4UserEEPvEEEEEEE7__allocB8ue170006Ev, symObjAddr: 0x2EC1C, symBinAddr: 0x100032C98, symSize: 0xDC }
  - { offsetInCU: 0x241B3, offset: 0x241B3, size: 0x8, addend: 0x0, symName: __ZNSt3__110unique_ptrIA_PNS_16__hash_node_baseIPNS_11__hash_nodeINS_17__hash_value_typeINS_12basic_stringIcNS_11char_traitsIcEENS_9allocatorIcEEEE4UserEEPvEEEENS_25__bucket_list_deallocatorINS7_ISG_EEEEE5resetB8ue170006IPSG_EENS_9enable_ifIXsr28_CheckArrayPointerConversionIT_EE5valueEvE4typeESP_, symObjAddr: 0x2ECF8, symBinAddr: 0x100032D74, symSize: 0x2CC }
  - { offsetInCU: 0x24200, offset: 0x24200, size: 0x8, addend: 0x0, symName: __ZNSt3__116allocator_traitsINS_9allocatorIPNS_16__hash_node_baseIPNS_11__hash_nodeINS_17__hash_value_typeINS_12basic_stringIcNS_11char_traitsIcEENS1_IcEEEE4UserEEPvEEEEEEE8allocateB8ue170006ERSH_m, symObjAddr: 0x2EFC4, symBinAddr: 0x100033040, symSize: 0x2C }
  - { offsetInCU: 0x24233, offset: 0x24233, size: 0x8, addend: 0x0, symName: __ZNSt3__125__bucket_list_deallocatorINS_9allocatorIPNS_16__hash_node_baseIPNS_11__hash_nodeINS_17__hash_value_typeINS_12basic_stringIcNS_11char_traitsIcEENS1_IcEEEE4UserEEPvEEEEEEE4sizeB8ue170006Ev, symObjAddr: 0x2EFF0, symBinAddr: 0x10003306C, symSize: 0xF8 }
  - { offsetInCU: 0x24259, offset: 0x24259, size: 0x8, addend: 0x0, symName: __ZNSt3__117__compressed_pairIPPNS_16__hash_node_baseIPNS_11__hash_nodeINS_17__hash_value_typeINS_12basic_stringIcNS_11char_traitsIcEENS_9allocatorIcEEEE4UserEEPvEEEENS_25__bucket_list_deallocatorINS7_ISG_EEEEE6secondB8ue170006Ev, symObjAddr: 0x2F0E8, symBinAddr: 0x100033164, symSize: 0x12C }
  - { offsetInCU: 0x2427F, offset: 0x2427F, size: 0x8, addend: 0x0, symName: __ZNSt3__122__compressed_pair_elemINS_25__bucket_list_deallocatorINS_9allocatorIPNS_16__hash_node_baseIPNS_11__hash_nodeINS_17__hash_value_typeINS_12basic_stringIcNS_11char_traitsIcEENS2_IcEEEE4UserEEPvEEEEEEEELi1ELb0EE5__getB8ue170006Ev, symObjAddr: 0x2F214, symBinAddr: 0x100033290, symSize: 0xAC }
  - { offsetInCU: 0x242A5, offset: 0x242A5, size: 0x8, addend: 0x0, symName: __ZNSt3__117__compressed_pairImNS_9allocatorIPNS_16__hash_node_baseIPNS_11__hash_nodeINS_17__hash_value_typeINS_12basic_stringIcNS_11char_traitsIcEENS1_IcEEEE4UserEEPvEEEEEEE6secondB8ue170006Ev, symObjAddr: 0x2F2C0, symBinAddr: 0x10003333C, symSize: 0x108 }
  - { offsetInCU: 0x242CB, offset: 0x242CB, size: 0x8, addend: 0x0, symName: __ZNSt3__122__compressed_pair_elemINS_9allocatorIPNS_16__hash_node_baseIPNS_11__hash_nodeINS_17__hash_value_typeINS_12basic_stringIcNS_11char_traitsIcEENS1_IcEEEE4UserEEPvEEEEEELi1ELb1EE5__getB8ue170006Ev, symObjAddr: 0x2F3C8, symBinAddr: 0x100033444, symSize: 0x74 }
  - { offsetInCU: 0x242F1, offset: 0x242F1, size: 0x8, addend: 0x0, symName: __ZNSt3__117__compressed_pairIPPNS_16__hash_node_baseIPNS_11__hash_nodeINS_17__hash_value_typeINS_12basic_stringIcNS_11char_traitsIcEENS_9allocatorIcEEEE4UserEEPvEEEENS_25__bucket_list_deallocatorINS7_ISG_EEEEE5firstB8ue170006Ev, symObjAddr: 0x2F43C, symBinAddr: 0x1000334B8, symSize: 0x124 }
  - { offsetInCU: 0x24317, offset: 0x24317, size: 0x8, addend: 0x0, symName: __ZNSt3__125__bucket_list_deallocatorINS_9allocatorIPNS_16__hash_node_baseIPNS_11__hash_nodeINS_17__hash_value_typeINS_12basic_stringIcNS_11char_traitsIcEENS1_IcEEEE4UserEEPvEEEEEEEclB8ue170006EPSG_, symObjAddr: 0x2F560, symBinAddr: 0x1000335DC, symSize: 0x140 }
  - { offsetInCU: 0x2434C, offset: 0x2434C, size: 0x8, addend: 0x0, symName: __ZNSt3__122__compressed_pair_elemIPPNS_16__hash_node_baseIPNS_11__hash_nodeINS_17__hash_value_typeINS_12basic_stringIcNS_11char_traitsIcEENS_9allocatorIcEEEE4UserEEPvEEEELi0ELb0EE5__getB8ue170006Ev, symObjAddr: 0x2F6A0, symBinAddr: 0x10003371C, symSize: 0xAC }
  - { offsetInCU: 0x24372, offset: 0x24372, size: 0x8, addend: 0x0, symName: __ZNSt3__116allocator_traitsINS_9allocatorIPNS_16__hash_node_baseIPNS_11__hash_nodeINS_17__hash_value_typeINS_12basic_stringIcNS_11char_traitsIcEENS1_IcEEEE4UserEEPvEEEEEEE10deallocateB8ue170006ERSH_PSG_m, symObjAddr: 0x2F74C, symBinAddr: 0x1000337C8, symSize: 0x34 }
  - { offsetInCU: 0x243B4, offset: 0x243B4, size: 0x8, addend: 0x0, symName: __ZNSt3__19allocatorIPNS_16__hash_node_baseIPNS_11__hash_nodeINS_17__hash_value_typeINS_12basic_stringIcNS_11char_traitsIcEENS0_IcEEEE4UserEEPvEEEEE10deallocateB8ue170006EPSF_m, symObjAddr: 0x2F780, symBinAddr: 0x1000337FC, symSize: 0x78 }
  - { offsetInCU: 0x243F6, offset: 0x243F6, size: 0x8, addend: 0x0, symName: __ZNSt3__19allocatorIPNS_16__hash_node_baseIPNS_11__hash_nodeINS_17__hash_value_typeINS_12basic_stringIcNS_11char_traitsIcEENS0_IcEEEE4UserEEPvEEEEE8allocateB8ue170006Em, symObjAddr: 0x2F7F8, symBinAddr: 0x100033874, symSize: 0xCC }
  - { offsetInCU: 0x24435, offset: 0x24435, size: 0x8, addend: 0x0, symName: __ZNSt3__116allocator_traitsINS_9allocatorIPNS_16__hash_node_baseIPNS_11__hash_nodeINS_17__hash_value_typeINS_12basic_stringIcNS_11char_traitsIcEENS1_IcEEEE4UserEEPvEEEEEEE8max_sizeB8ue170006ISH_vEEmRKSH_, symObjAddr: 0x2F8C4, symBinAddr: 0x100033940, symSize: 0x24 }
  - { offsetInCU: 0x24463, offset: 0x24463, size: 0x8, addend: 0x0, symName: __ZNKSt3__19allocatorIPNS_16__hash_node_baseIPNS_11__hash_nodeINS_17__hash_value_typeINS_12basic_stringIcNS_11char_traitsIcEENS0_IcEEEE4UserEEPvEEEEE8max_sizeB8ue170006Ev, symObjAddr: 0x2F8E8, symBinAddr: 0x100033964, symSize: 0x4C }
  - { offsetInCU: 0x24489, offset: 0x24489, size: 0x8, addend: 0x0, symName: __ZNSt3__117__compressed_pairImNS_9allocatorIPNS_16__hash_node_baseIPNS_11__hash_nodeINS_17__hash_value_typeINS_12basic_stringIcNS_11char_traitsIcEENS1_IcEEEE4UserEEPvEEEEEEE5firstB8ue170006Ev, symObjAddr: 0x2F934, symBinAddr: 0x1000339B0, symSize: 0x124 }
  - { offsetInCU: 0x244BA, offset: 0x244BA, size: 0x8, addend: 0x0, symName: __ZNKSt3__16__lessIvvEclB8ue170006ImmEEbRKT_RKT0_, symObjAddr: 0x2FD34, symBinAddr: 0x100033DB0, symSize: 0xEC }
  - { offsetInCU: 0x2450E, offset: 0x2450E, size: 0x8, addend: 0x0, symName: __ZNSt3__122__compressed_pair_elemINS_16__hash_node_baseIPNS_11__hash_nodeINS_17__hash_value_typeINS_12basic_stringIcNS_11char_traitsIcEENS_9allocatorIcEEEE4UserEEPvEEEELi0ELb0EE5__getB8ue170006Ev, symObjAddr: 0x2FE20, symBinAddr: 0x100033E9C, symSize: 0xAC }
  - { offsetInCU: 0x24534, offset: 0x24534, size: 0x8, addend: 0x0, symName: __ZNKSt3__117__compressed_pairIPNS_11__hash_nodeINS_17__hash_value_typeINS_12basic_stringIcNS_11char_traitsIcEENS_9allocatorIcEEEE4UserEEPvEENS_22__hash_node_destructorINS6_ISC_EEEEE5firstB8ue170006Ev, symObjAddr: 0x2FECC, symBinAddr: 0x100033F48, symSize: 0x124 }
  - { offsetInCU: 0x2455A, offset: 0x2455A, size: 0x8, addend: 0x0, symName: __ZNKSt3__122__compressed_pair_elemIPNS_11__hash_nodeINS_17__hash_value_typeINS_12basic_stringIcNS_11char_traitsIcEENS_9allocatorIcEEEE4UserEEPvEELi0ELb0EE5__getB8ue170006Ev, symObjAddr: 0x2FFF0, symBinAddr: 0x10003406C, symSize: 0xAC }
  - { offsetInCU: 0x24580, offset: 0x24580, size: 0x8, addend: 0x0, symName: __ZNSt3__117__compressed_pairIPNS_11__hash_nodeINS_17__hash_value_typeINS_12basic_stringIcNS_11char_traitsIcEENS_9allocatorIcEEEE4UserEEPvEENS_22__hash_node_destructorINS6_ISC_EEEEE5firstB8ue170006Ev, symObjAddr: 0x3009C, symBinAddr: 0x100034118, symSize: 0x124 }
  - { offsetInCU: 0x245A6, offset: 0x245A6, size: 0x8, addend: 0x0, symName: __ZNSt3__122__compressed_pair_elemIPNS_11__hash_nodeINS_17__hash_value_typeINS_12basic_stringIcNS_11char_traitsIcEENS_9allocatorIcEEEE4UserEEPvEELi0ELb0EE5__getB8ue170006Ev, symObjAddr: 0x301C0, symBinAddr: 0x10003423C, symSize: 0xAC }
  - { offsetInCU: 0x245CC, offset: 0x245CC, size: 0x8, addend: 0x0, symName: __ZNSt3__110unique_ptrINS_11__hash_nodeINS_17__hash_value_typeINS_12basic_stringIcNS_11char_traitsIcEENS_9allocatorIcEEEE4UserEEPvEENS_22__hash_node_destructorINS6_ISC_EEEEED2B8ue170006Ev, symObjAddr: 0x3026C, symBinAddr: 0x1000342E8, symSize: 0x7C }
  - { offsetInCU: 0x245F6, offset: 0x245F6, size: 0x8, addend: 0x0, symName: __ZNSt3__110unique_ptrINS_11__hash_nodeINS_17__hash_value_typeINS_12basic_stringIcNS_11char_traitsIcEENS_9allocatorIcEEEE4UserEEPvEENS_22__hash_node_destructorINS6_ISC_EEEEE5resetB8ue170006EPSC_, symObjAddr: 0x302E8, symBinAddr: 0x100034364, symSize: 0x2CC }
  - { offsetInCU: 0x2463A, offset: 0x2463A, size: 0x8, addend: 0x0, symName: __ZNSt3__122__hash_node_destructorINS_9allocatorINS_11__hash_nodeINS_17__hash_value_typeINS_12basic_stringIcNS_11char_traitsIcEENS1_IcEEEE4UserEEPvEEEEEclB8ue170006EPSC_, symObjAddr: 0x305B4, symBinAddr: 0x100034630, symSize: 0x2C0 }
  - { offsetInCU: 0x2466F, offset: 0x2466F, size: 0x8, addend: 0x0, symName: __ZNSt3__116allocator_traitsINS_9allocatorINS_11__hash_nodeINS_17__hash_value_typeINS_12basic_stringIcNS_11char_traitsIcEENS1_IcEEEE4UserEEPvEEEEE7destroyB8ue170006INS_4pairIKS8_S9_EEvvEEvRSD_PT_, symObjAddr: 0x30874, symBinAddr: 0x1000348F0, symSize: 0x70 }
  - { offsetInCU: 0x246AA, offset: 0x246AA, size: 0x8, addend: 0x0, symName: __ZNSt3__116allocator_traitsINS_9allocatorINS_11__hash_nodeINS_17__hash_value_typeINS_12basic_stringIcNS_11char_traitsIcEENS1_IcEEEE4UserEEPvEEEEE10deallocateB8ue170006ERSD_PSC_m, symObjAddr: 0x308E4, symBinAddr: 0x100034960, symSize: 0x34 }
  - { offsetInCU: 0x246EC, offset: 0x246EC, size: 0x8, addend: 0x0, symName: __ZNSt3__14pairIKNS_12basic_stringIcNS_11char_traitsIcEENS_9allocatorIcEEEE4UserED1Ev, symObjAddr: 0x30918, symBinAddr: 0x100034994, symSize: 0x78 }
  - { offsetInCU: 0x24718, offset: 0x24718, size: 0x8, addend: 0x0, symName: __ZNSt3__14pairIKNS_12basic_stringIcNS_11char_traitsIcEENS_9allocatorIcEEEE4UserED2Ev, symObjAddr: 0x30990, symBinAddr: 0x100034A0C, symSize: 0x84 }
  - { offsetInCU: 0x24744, offset: 0x24744, size: 0x8, addend: 0x0, symName: __ZNSt3__19allocatorINS_11__hash_nodeINS_17__hash_value_typeINS_12basic_stringIcNS_11char_traitsIcEENS0_IcEEEE4UserEEPvEEE10deallocateB8ue170006EPSB_m, symObjAddr: 0x30A14, symBinAddr: 0x100034A90, symSize: 0x7C }
  - { offsetInCU: 0x24786, offset: 0x24786, size: 0x8, addend: 0x0, symName: __ZNSt3__115__hash_iteratorIPNS_11__hash_nodeINS_17__hash_value_typeINS_12basic_stringIcNS_11char_traitsIcEENS_9allocatorIcEEEE4UserEEPvEEEC2B8ue170006EPNS_16__hash_node_baseISD_EE, symObjAddr: 0x30A90, symBinAddr: 0x100034B0C, symSize: 0xC8 }
  - { offsetInCU: 0x247BF, offset: 0x247BF, size: 0x8, addend: 0x0, symName: __ZNSt3__14pairINS_15__hash_iteratorIPNS_11__hash_nodeINS_17__hash_value_typeINS_12basic_stringIcNS_11char_traitsIcEENS_9allocatorIcEEEE4UserEEPvEEEEbEC2B8ue170006ISF_RbLSC_0EEEOT_OT0_, symObjAddr: 0x30B58, symBinAddr: 0x100034BD4, symSize: 0x1C8 }
  - { offsetInCU: 0x2481D, offset: 0x2481D, size: 0x8, addend: 0x0, symName: __ZNSt3__15tupleIJONS_12basic_stringIcNS_11char_traitsIcEENS_9allocatorIcEEEEEEC1B8ue170006IJS6_ELi0EEEDpOT_, symObjAddr: 0x30D20, symBinAddr: 0x100034D9C, symSize: 0x80 }
  - { offsetInCU: 0x24867, offset: 0x24867, size: 0x8, addend: 0x0, symName: __ZNSt3__15tupleIJONS_12basic_stringIcNS_11char_traitsIcEENS_9allocatorIcEEEEEEC2B8ue170006IJS6_ELi0EEEDpOT_, symObjAddr: 0x30DA0, symBinAddr: 0x100034E1C, symSize: 0xC8 }
  - { offsetInCU: 0x248B1, offset: 0x248B1, size: 0x8, addend: 0x0, symName: __ZNSt3__112__tuple_implINS_15__tuple_indicesIJLm0EEEEJONS_12basic_stringIcNS_11char_traitsIcEENS_9allocatorIcEEEEEEC1B8ue170006IJLm0EEJS9_EJEJEJS8_EEENS1_IJXspT_EEEENS_13__tuple_typesIJDpT0_EEENS1_IJXspT1_EEEENSD_IJDpT2_EEEDpOT3_, symObjAddr: 0x30E68, symBinAddr: 0x100034EE4, symSize: 0x80 }
  - { offsetInCU: 0x24946, offset: 0x24946, size: 0x8, addend: 0x0, symName: __ZNSt3__112__tuple_implINS_15__tuple_indicesIJLm0EEEEJONS_12basic_stringIcNS_11char_traitsIcEENS_9allocatorIcEEEEEEC2B8ue170006IJLm0EEJS9_EJEJEJS8_EEENS1_IJXspT_EEEENS_13__tuple_typesIJDpT0_EEENS1_IJXspT1_EEEENSD_IJDpT2_EEEDpOT3_, symObjAddr: 0x30EE8, symBinAddr: 0x100034F64, symSize: 0x10C }
  - { offsetInCU: 0x249DB, offset: 0x249DB, size: 0x8, addend: 0x0, symName: __ZNSt3__112__tuple_leafILm0EONS_12basic_stringIcNS_11char_traitsIcEENS_9allocatorIcEEEELb0EEC2B8ue170006IS6_vEEOT_, symObjAddr: 0x30FF4, symBinAddr: 0x100035070, symSize: 0x108 }
  - { offsetInCU: 0x24A1E, offset: 0x24A1E, size: 0x8, addend: 0x0, symName: __ZNSt3__114pointer_traitsIPNS_17__hash_value_typeINS_12basic_stringIcNS_11char_traitsIcEENS_9allocatorIcEEEE4UserEEE10pointer_toB8ue170006ERS9_, symObjAddr: 0x310FC, symBinAddr: 0x100035178, symSize: 0x14 }
  - { offsetInCU: 0x24A41, offset: 0x24A41, size: 0x8, addend: 0x0, symName: __ZNSt3__113unordered_setINS_12basic_stringIcNS_11char_traitsIcEENS_9allocatorIcEEEENS_4hashIS6_EENS_8equal_toIS6_EENS4_IS6_EEEaSB8ue170006ERKSC_, symObjAddr: 0x31148, symBinAddr: 0x1000351C4, symSize: 0x148 }
  - { offsetInCU: 0x24A76, offset: 0x24A76, size: 0x8, addend: 0x0, symName: __ZNSt3__16vectorI11TransactionNS_9allocatorIS1_EEEaSB8ue170006ERKS4_, symObjAddr: 0x31290, symBinAddr: 0x10003530C, symSize: 0x218 }
  - { offsetInCU: 0x24AAD, offset: 0x24AAD, size: 0x8, addend: 0x0, symName: __ZNSt3__112__hash_tableINS_12basic_stringIcNS_11char_traitsIcEENS_9allocatorIcEEEENS_4hashIS6_EENS_8equal_toIS6_EENS4_IS6_EEEaSERKSC_, symObjAddr: 0x314A8, symBinAddr: 0x100035524, symSize: 0x5BC }
  - { offsetInCU: 0x24AE6, offset: 0x24AE6, size: 0x8, addend: 0x0, symName: __ZNSt3__112__hash_tableINS_12basic_stringIcNS_11char_traitsIcEENS_9allocatorIcEEEENS_4hashIS6_EENS_8equal_toIS6_EENS4_IS6_EEE19__copy_assign_allocB8ue170006ERKSC_, symObjAddr: 0x31A64, symBinAddr: 0x100035AE0, symSize: 0xBC }
  - { offsetInCU: 0x24B1B, offset: 0x24B1B, size: 0x8, addend: 0x0, symName: __ZNKSt3__112__hash_tableINS_12basic_stringIcNS_11char_traitsIcEENS_9allocatorIcEEEENS_4hashIS6_EENS_8equal_toIS6_EENS4_IS6_EEE13hash_functionB8ue170006Ev, symObjAddr: 0x31B20, symBinAddr: 0x100035B9C, symSize: 0xE4 }
  - { offsetInCU: 0x24B41, offset: 0x24B41, size: 0x8, addend: 0x0, symName: __ZNSt3__112__hash_tableINS_12basic_stringIcNS_11char_traitsIcEENS_9allocatorIcEEEENS_4hashIS6_EENS_8equal_toIS6_EENS4_IS6_EEE13hash_functionB8ue170006Ev, symObjAddr: 0x31C04, symBinAddr: 0x100035C80, symSize: 0xE4 }
  - { offsetInCU: 0x24B67, offset: 0x24B67, size: 0x8, addend: 0x0, symName: __ZNKSt3__112__hash_tableINS_12basic_stringIcNS_11char_traitsIcEENS_9allocatorIcEEEENS_4hashIS6_EENS_8equal_toIS6_EENS4_IS6_EEE6key_eqB8ue170006Ev, symObjAddr: 0x31CE8, symBinAddr: 0x100035D64, symSize: 0xE4 }
  - { offsetInCU: 0x24B8D, offset: 0x24B8D, size: 0x8, addend: 0x0, symName: __ZNSt3__112__hash_tableINS_12basic_stringIcNS_11char_traitsIcEENS_9allocatorIcEEEENS_4hashIS6_EENS_8equal_toIS6_EENS4_IS6_EEE6key_eqB8ue170006Ev, symObjAddr: 0x31DCC, symBinAddr: 0x100035E48, symSize: 0xE4 }
  - { offsetInCU: 0x24BB3, offset: 0x24BB3, size: 0x8, addend: 0x0, symName: __ZNKSt3__112__hash_tableINS_12basic_stringIcNS_11char_traitsIcEENS_9allocatorIcEEEENS_4hashIS6_EENS_8equal_toIS6_EENS4_IS6_EEE15max_load_factorB8ue170006Ev, symObjAddr: 0x31EB0, symBinAddr: 0x100035F2C, symSize: 0x16C }
  - { offsetInCU: 0x24BD9, offset: 0x24BD9, size: 0x8, addend: 0x0, symName: __ZNSt3__112__hash_tableINS_12basic_stringIcNS_11char_traitsIcEENS_9allocatorIcEEEENS_4hashIS6_EENS_8equal_toIS6_EENS4_IS6_EEE15max_load_factorB8ue170006Ev, symObjAddr: 0x3201C, symBinAddr: 0x100036098, symSize: 0x100 }
  - { offsetInCU: 0x24BFF, offset: 0x24BFF, size: 0x8, addend: 0x0, symName: __ZNSt3__112__hash_tableINS_12basic_stringIcNS_11char_traitsIcEENS_9allocatorIcEEEENS_4hashIS6_EENS_8equal_toIS6_EENS4_IS6_EEE14__assign_multiINS_21__hash_const_iteratorIPNS_11__hash_nodeIS6_PvEEEEEEvT_SK_, symObjAddr: 0x3211C, symBinAddr: 0x100036198, symSize: 0x858 }
  - { offsetInCU: 0x24C83, offset: 0x24C83, size: 0x8, addend: 0x0, symName: __ZNKSt3__112__hash_tableINS_12basic_stringIcNS_11char_traitsIcEENS_9allocatorIcEEEENS_4hashIS6_EENS_8equal_toIS6_EENS4_IS6_EEE5beginEv, symObjAddr: 0x32974, symBinAddr: 0x1000369F0, symSize: 0x354 }
  - { offsetInCU: 0x24CAC, offset: 0x24CAC, size: 0x8, addend: 0x0, symName: __ZNKSt3__112__hash_tableINS_12basic_stringIcNS_11char_traitsIcEENS_9allocatorIcEEEENS_4hashIS6_EENS_8equal_toIS6_EENS4_IS6_EEE3endEv, symObjAddr: 0x32CC8, symBinAddr: 0x100036D44, symSize: 0x240 }
  - { offsetInCU: 0x24CD5, offset: 0x24CD5, size: 0x8, addend: 0x0, symName: __ZNSt3__112__hash_tableINS_12basic_stringIcNS_11char_traitsIcEENS_9allocatorIcEEEENS_4hashIS6_EENS_8equal_toIS6_EENS4_IS6_EEE19__copy_assign_allocB8ue170006ERKSC_NS_17integral_constantIbLb0EEE, symObjAddr: 0x32F08, symBinAddr: 0x100036F84, symSize: 0x64 }
  - { offsetInCU: 0x24D13, offset: 0x24D13, size: 0x8, addend: 0x0, symName: __ZNKSt3__117__compressed_pairImNS_4hashINS_12basic_stringIcNS_11char_traitsIcEENS_9allocatorIcEEEEEEE6secondB8ue170006Ev, symObjAddr: 0x32F6C, symBinAddr: 0x100036FE8, symSize: 0x108 }
  - { offsetInCU: 0x24D39, offset: 0x24D39, size: 0x8, addend: 0x0, symName: __ZNKSt3__122__compressed_pair_elemINS_4hashINS_12basic_stringIcNS_11char_traitsIcEENS_9allocatorIcEEEEEELi1ELb1EE5__getB8ue170006Ev, symObjAddr: 0x33074, symBinAddr: 0x1000370F0, symSize: 0x74 }
  - { offsetInCU: 0x24D5F, offset: 0x24D5F, size: 0x8, addend: 0x0, symName: __ZNSt3__117__compressed_pairImNS_4hashINS_12basic_stringIcNS_11char_traitsIcEENS_9allocatorIcEEEEEEE6secondB8ue170006Ev, symObjAddr: 0x330E8, symBinAddr: 0x100037164, symSize: 0x108 }
  - { offsetInCU: 0x24D85, offset: 0x24D85, size: 0x8, addend: 0x0, symName: __ZNSt3__122__compressed_pair_elemINS_4hashINS_12basic_stringIcNS_11char_traitsIcEENS_9allocatorIcEEEEEELi1ELb1EE5__getB8ue170006Ev, symObjAddr: 0x331F0, symBinAddr: 0x10003726C, symSize: 0x74 }
  - { offsetInCU: 0x24DAB, offset: 0x24DAB, size: 0x8, addend: 0x0, symName: __ZNKSt3__117__compressed_pairIfNS_8equal_toINS_12basic_stringIcNS_11char_traitsIcEENS_9allocatorIcEEEEEEE6secondB8ue170006Ev, symObjAddr: 0x33264, symBinAddr: 0x1000372E0, symSize: 0x108 }
  - { offsetInCU: 0x24DD1, offset: 0x24DD1, size: 0x8, addend: 0x0, symName: __ZNKSt3__122__compressed_pair_elemINS_8equal_toINS_12basic_stringIcNS_11char_traitsIcEENS_9allocatorIcEEEEEELi1ELb1EE5__getB8ue170006Ev, symObjAddr: 0x3336C, symBinAddr: 0x1000373E8, symSize: 0x74 }
  - { offsetInCU: 0x24DF7, offset: 0x24DF7, size: 0x8, addend: 0x0, symName: __ZNSt3__117__compressed_pairIfNS_8equal_toINS_12basic_stringIcNS_11char_traitsIcEENS_9allocatorIcEEEEEEE6secondB8ue170006Ev, symObjAddr: 0x333E0, symBinAddr: 0x10003745C, symSize: 0x108 }
  - { offsetInCU: 0x24E1D, offset: 0x24E1D, size: 0x8, addend: 0x0, symName: __ZNSt3__122__compressed_pair_elemINS_8equal_toINS_12basic_stringIcNS_11char_traitsIcEENS_9allocatorIcEEEEEELi1ELb1EE5__getB8ue170006Ev, symObjAddr: 0x334E8, symBinAddr: 0x100037564, symSize: 0x74 }
  - { offsetInCU: 0x24E43, offset: 0x24E43, size: 0x8, addend: 0x0, symName: __ZNKSt3__117__compressed_pairIfNS_8equal_toINS_12basic_stringIcNS_11char_traitsIcEENS_9allocatorIcEEEEEEE5firstB8ue170006Ev, symObjAddr: 0x3355C, symBinAddr: 0x1000375D8, symSize: 0x124 }
  - { offsetInCU: 0x24E69, offset: 0x24E69, size: 0x8, addend: 0x0, symName: __ZNKSt3__122__compressed_pair_elemIfLi0ELb0EE5__getB8ue170006Ev, symObjAddr: 0x33680, symBinAddr: 0x1000376FC, symSize: 0xAC }
  - { offsetInCU: 0x24E8F, offset: 0x24E8F, size: 0x8, addend: 0x0, symName: __ZNSt3__117__compressed_pairIfNS_8equal_toINS_12basic_stringIcNS_11char_traitsIcEENS_9allocatorIcEEEEEEE5firstB8ue170006Ev, symObjAddr: 0x3372C, symBinAddr: 0x1000377A8, symSize: 0x124 }
  - { offsetInCU: 0x24EB5, offset: 0x24EB5, size: 0x8, addend: 0x0, symName: __ZNKSt3__112__hash_tableINS_12basic_stringIcNS_11char_traitsIcEENS_9allocatorIcEEEENS_4hashIS6_EENS_8equal_toIS6_EENS4_IS6_EEE12bucket_countB8ue170006Ev, symObjAddr: 0x33850, symBinAddr: 0x1000378CC, symSize: 0xFC }
  - { offsetInCU: 0x24EDB, offset: 0x24EDB, size: 0x8, addend: 0x0, symName: __ZNSt3__112__hash_tableINS_12basic_stringIcNS_11char_traitsIcEENS_9allocatorIcEEEENS_4hashIS6_EENS_8equal_toIS6_EENS4_IS6_EEE8__detachEv, symObjAddr: 0x3394C, symBinAddr: 0x1000379C8, symSize: 0x450 }
  - { offsetInCU: 0x24F36, offset: 0x24F36, size: 0x8, addend: 0x0, symName: __ZNKSt3__121__hash_const_iteratorIPNS_11__hash_nodeINS_12basic_stringIcNS_11char_traitsIcEENS_9allocatorIcEEEEPvEEEdeB8ue170006Ev, symObjAddr: 0x33E60, symBinAddr: 0x100037EDC, symSize: 0x18C }
  - { offsetInCU: 0x24F5C, offset: 0x24F5C, size: 0x8, addend: 0x0, symName: __ZNSt3__112__hash_tableINS_12basic_stringIcNS_11char_traitsIcEENS_9allocatorIcEEEENS_4hashIS6_EENS_8equal_toIS6_EENS4_IS6_EEE19__node_insert_multiEPNS_11__hash_nodeIS6_PvEE, symObjAddr: 0x33FEC, symBinAddr: 0x100038068, symSize: 0x5A4 }
  - { offsetInCU: 0x24FA5, offset: 0x24FA5, size: 0x8, addend: 0x0, symName: __ZNSt3__121__hash_const_iteratorIPNS_11__hash_nodeINS_12basic_stringIcNS_11char_traitsIcEENS_9allocatorIcEEEEPvEEEppB8ue170006Ev, symObjAddr: 0x34590, symBinAddr: 0x10003860C, symSize: 0x1F0 }
  - { offsetInCU: 0x24FCB, offset: 0x24FCB, size: 0x8, addend: 0x0, symName: __ZNSt3__112__hash_tableINS_12basic_stringIcNS_11char_traitsIcEENS_9allocatorIcEEEENS_4hashIS6_EENS_8equal_toIS6_EENS4_IS6_EEE14__insert_multiB8ue170006IRKS6_EENS_15__hash_iteratorIPNS_11__hash_nodeIS6_PvEEEEOT_, symObjAddr: 0x34780, symBinAddr: 0x1000387FC, symSize: 0x2CC }
  - { offsetInCU: 0x2500B, offset: 0x2500B, size: 0x8, addend: 0x0, symName: __ZNSt3__122__hash_key_value_typesINS_12basic_stringIcNS_11char_traitsIcEENS_9allocatorIcEEEEE11__get_valueB8ue170006ERKS6_, symObjAddr: 0x34A4C, symBinAddr: 0x100038AC8, symSize: 0x68 }
  - { offsetInCU: 0x2502E, offset: 0x2502E, size: 0x8, addend: 0x0, symName: __ZNKSt3__110unique_ptrIA_PNS_16__hash_node_baseIPNS_11__hash_nodeINS_12basic_stringIcNS_11char_traitsIcEENS_9allocatorIcEEEEPvEEEENS_25__bucket_list_deallocatorINS6_ISD_EEEEE11get_deleterB8ue170006Ev, symObjAddr: 0x34AB4, symBinAddr: 0x100038B30, symSize: 0xF8 }
  - { offsetInCU: 0x25054, offset: 0x25054, size: 0x8, addend: 0x0, symName: __ZNKSt3__125__bucket_list_deallocatorINS_9allocatorIPNS_16__hash_node_baseIPNS_11__hash_nodeINS_12basic_stringIcNS_11char_traitsIcEENS1_IcEEEEPvEEEEEEE4sizeB8ue170006Ev, symObjAddr: 0x34BAC, symBinAddr: 0x100038C28, symSize: 0x13C }
  - { offsetInCU: 0x2507A, offset: 0x2507A, size: 0x8, addend: 0x0, symName: __ZNKSt3__117__compressed_pairIPPNS_16__hash_node_baseIPNS_11__hash_nodeINS_12basic_stringIcNS_11char_traitsIcEENS_9allocatorIcEEEEPvEEEENS_25__bucket_list_deallocatorINS6_ISD_EEEEE6secondB8ue170006Ev, symObjAddr: 0x34CE8, symBinAddr: 0x100038D64, symSize: 0x12C }
  - { offsetInCU: 0x250A0, offset: 0x250A0, size: 0x8, addend: 0x0, symName: __ZNKSt3__122__compressed_pair_elemINS_25__bucket_list_deallocatorINS_9allocatorIPNS_16__hash_node_baseIPNS_11__hash_nodeINS_12basic_stringIcNS_11char_traitsIcEENS2_IcEEEEPvEEEEEEEELi1ELb0EE5__getB8ue170006Ev, symObjAddr: 0x34E14, symBinAddr: 0x100038E90, symSize: 0xAC }
  - { offsetInCU: 0x250C6, offset: 0x250C6, size: 0x8, addend: 0x0, symName: __ZNKSt3__117__compressed_pairImNS_9allocatorIPNS_16__hash_node_baseIPNS_11__hash_nodeINS_12basic_stringIcNS_11char_traitsIcEENS1_IcEEEEPvEEEEEEE5firstB8ue170006Ev, symObjAddr: 0x34EC0, symBinAddr: 0x100038F3C, symSize: 0x124 }
  - { offsetInCU: 0x250EC, offset: 0x250EC, size: 0x8, addend: 0x0, symName: __ZNKSt3__110unique_ptrIA_PNS_16__hash_node_baseIPNS_11__hash_nodeINS_12basic_stringIcNS_11char_traitsIcEENS_9allocatorIcEEEEPvEEEENS_25__bucket_list_deallocatorINS6_ISD_EEEEEixB8ue170006Em, symObjAddr: 0x34FE4, symBinAddr: 0x100039060, symSize: 0x25C }
  - { offsetInCU: 0x25121, offset: 0x25121, size: 0x8, addend: 0x0, symName: __ZNSt3__112__hash_tableINS_12basic_stringIcNS_11char_traitsIcEENS_9allocatorIcEEEENS_4hashIS6_EENS_8equal_toIS6_EENS4_IS6_EEE4sizeB8ue170006Ev, symObjAddr: 0x35240, symBinAddr: 0x1000392BC, symSize: 0x100 }
  - { offsetInCU: 0x25147, offset: 0x25147, size: 0x8, addend: 0x0, symName: __ZNKSt3__117__compressed_pairIPPNS_16__hash_node_baseIPNS_11__hash_nodeINS_12basic_stringIcNS_11char_traitsIcEENS_9allocatorIcEEEEPvEEEENS_25__bucket_list_deallocatorINS6_ISD_EEEEE5firstB8ue170006Ev, symObjAddr: 0x35340, symBinAddr: 0x1000393BC, symSize: 0x124 }
  - { offsetInCU: 0x2516D, offset: 0x2516D, size: 0x8, addend: 0x0, symName: __ZNKSt3__122__compressed_pair_elemIPPNS_16__hash_node_baseIPNS_11__hash_nodeINS_12basic_stringIcNS_11char_traitsIcEENS_9allocatorIcEEEEPvEEEELi0ELb0EE5__getB8ue170006Ev, symObjAddr: 0x35464, symBinAddr: 0x1000394E0, symSize: 0xAC }
  - { offsetInCU: 0x25193, offset: 0x25193, size: 0x8, addend: 0x0, symName: __ZNSt3__117__compressed_pairImNS_4hashINS_12basic_stringIcNS_11char_traitsIcEENS_9allocatorIcEEEEEEE5firstB8ue170006Ev, symObjAddr: 0x35510, symBinAddr: 0x10003958C, symSize: 0x124 }
  - { offsetInCU: 0x251B9, offset: 0x251B9, size: 0x8, addend: 0x0, symName: __ZNSt3__112__hash_tableINS_12basic_stringIcNS_11char_traitsIcEENS_9allocatorIcEEEENS_4hashIS6_EENS_8equal_toIS6_EENS4_IS6_EEE27__node_insert_multi_prepareEmRS6_, symObjAddr: 0x35748, symBinAddr: 0x1000397C4, symSize: 0xEEC }
  - { offsetInCU: 0x25250, offset: 0x25250, size: 0x8, addend: 0x0, symName: __ZNKSt3__116__hash_node_baseIPNS_11__hash_nodeINS_12basic_stringIcNS_11char_traitsIcEENS_9allocatorIcEEEEPvEEE6__hashB8ue170006Ev, symObjAddr: 0x36634, symBinAddr: 0x10003A6B0, symSize: 0x180 }
  - { offsetInCU: 0x25276, offset: 0x25276, size: 0x8, addend: 0x0, symName: __ZNSt3__112__hash_tableINS_12basic_stringIcNS_11char_traitsIcEENS_9allocatorIcEEEENS_4hashIS6_EENS_8equal_toIS6_EENS4_IS6_EEE27__node_insert_multi_performEPNS_11__hash_nodeIS6_PvEEPNS_16__hash_node_baseISG_EE, symObjAddr: 0x367B4, symBinAddr: 0x10003A830, symSize: 0x10A0 }
  - { offsetInCU: 0x252F7, offset: 0x252F7, size: 0x8, addend: 0x0, symName: __ZNSt3__116__hash_node_baseIPNS_11__hash_nodeINS_12basic_stringIcNS_11char_traitsIcEENS_9allocatorIcEEEEPvEEE5__ptrB8ue170006Ev, symObjAddr: 0x37854, symBinAddr: 0x10003B8D0, symSize: 0xB0 }
  - { offsetInCU: 0x2531D, offset: 0x2531D, size: 0x8, addend: 0x0, symName: __ZNSt3__115__hash_iteratorIPNS_11__hash_nodeINS_12basic_stringIcNS_11char_traitsIcEENS_9allocatorIcEEEEPvEEEC1B8ue170006EPNS_16__hash_node_baseISA_EE, symObjAddr: 0x37904, symBinAddr: 0x10003B980, symSize: 0x80 }
  - { offsetInCU: 0x25356, offset: 0x25356, size: 0x8, addend: 0x0, symName: __ZNSt3__112__hash_tableINS_12basic_stringIcNS_11char_traitsIcEENS_9allocatorIcEEEENS_4hashIS6_EENS_8equal_toIS6_EENS4_IS6_EEE14__rehash_multiB8ue170006Em, symObjAddr: 0x37984, symBinAddr: 0x10003BA00, symSize: 0x74 }
  - { offsetInCU: 0x2538B, offset: 0x2538B, size: 0x8, addend: 0x0, symName: __ZNSt3__112__hash_tableINS_12basic_stringIcNS_11char_traitsIcEENS_9allocatorIcEEEENS_4hashIS6_EENS_8equal_toIS6_EENS4_IS6_EEE8__rehashILb0EEEvm, symObjAddr: 0x379F8, symBinAddr: 0x10003BA74, symSize: 0x9CC }
  - { offsetInCU: 0x253E1, offset: 0x253E1, size: 0x8, addend: 0x0, symName: __ZNSt3__112__hash_tableINS_12basic_stringIcNS_11char_traitsIcEENS_9allocatorIcEEEENS_4hashIS6_EENS_8equal_toIS6_EENS4_IS6_EEE11__do_rehashILb0EEEvm, symObjAddr: 0x383C4, symBinAddr: 0x10003C440, symSize: 0x1508 }
  - { offsetInCU: 0x254C6, offset: 0x254C6, size: 0x8, addend: 0x0, symName: __ZNSt3__110unique_ptrIA_PNS_16__hash_node_baseIPNS_11__hash_nodeINS_12basic_stringIcNS_11char_traitsIcEENS_9allocatorIcEEEEPvEEEENS_25__bucket_list_deallocatorINS6_ISD_EEEEE11get_deleterB8ue170006Ev, symObjAddr: 0x398CC, symBinAddr: 0x10003D948, symSize: 0xF8 }
  - { offsetInCU: 0x254EC, offset: 0x254EC, size: 0x8, addend: 0x0, symName: __ZNSt3__110unique_ptrIA_PNS_16__hash_node_baseIPNS_11__hash_nodeINS_12basic_stringIcNS_11char_traitsIcEENS_9allocatorIcEEEEPvEEEENS_25__bucket_list_deallocatorINS6_ISD_EEEEE5resetB8ue170006IPSD_EENS_9enable_ifIXsr28_CheckArrayPointerConversionIT_EE5valueEvE4typeESM_, symObjAddr: 0x399C4, symBinAddr: 0x10003DA40, symSize: 0x2CC }
  - { offsetInCU: 0x25539, offset: 0x25539, size: 0x8, addend: 0x0, symName: __ZNSt3__116allocator_traitsINS_9allocatorIPNS_16__hash_node_baseIPNS_11__hash_nodeINS_12basic_stringIcNS_11char_traitsIcEENS1_IcEEEEPvEEEEEEE8allocateB8ue170006ERSE_m, symObjAddr: 0x39C90, symBinAddr: 0x10003DD0C, symSize: 0x2C }
  - { offsetInCU: 0x2556C, offset: 0x2556C, size: 0x8, addend: 0x0, symName: __ZNSt3__19allocatorIPNS_16__hash_node_baseIPNS_11__hash_nodeINS_12basic_stringIcNS_11char_traitsIcEENS0_IcEEEEPvEEEEE8allocateB8ue170006Em, symObjAddr: 0x39CBC, symBinAddr: 0x10003DD38, symSize: 0xCC }
  - { offsetInCU: 0x255AB, offset: 0x255AB, size: 0x8, addend: 0x0, symName: __ZNSt3__116allocator_traitsINS_9allocatorIPNS_16__hash_node_baseIPNS_11__hash_nodeINS_12basic_stringIcNS_11char_traitsIcEENS1_IcEEEEPvEEEEEEE8max_sizeB8ue170006ISE_vEEmRKSE_, symObjAddr: 0x39D88, symBinAddr: 0x10003DE04, symSize: 0x24 }
  - { offsetInCU: 0x255D9, offset: 0x255D9, size: 0x8, addend: 0x0, symName: __ZNKSt3__19allocatorIPNS_16__hash_node_baseIPNS_11__hash_nodeINS_12basic_stringIcNS_11char_traitsIcEENS0_IcEEEEPvEEEEE8max_sizeB8ue170006Ev, symObjAddr: 0x39DAC, symBinAddr: 0x10003DE28, symSize: 0x4C }
  - { offsetInCU: 0x255FF, offset: 0x255FF, size: 0x8, addend: 0x0, symName: __ZNSt3__115__hash_iteratorIPNS_11__hash_nodeINS_12basic_stringIcNS_11char_traitsIcEENS_9allocatorIcEEEEPvEEEC2B8ue170006EPNS_16__hash_node_baseISA_EE, symObjAddr: 0x39DF8, symBinAddr: 0x10003DE74, symSize: 0xC8 }
  - { offsetInCU: 0x25638, offset: 0x25638, size: 0x8, addend: 0x0, symName: __ZNSt3__112__hash_tableINS_12basic_stringIcNS_11char_traitsIcEENS_9allocatorIcEEEENS_4hashIS6_EENS_8equal_toIS6_EENS4_IS6_EEE15__emplace_multiIJRKS6_EEENS_15__hash_iteratorIPNS_11__hash_nodeIS6_PvEEEEDpOT_, symObjAddr: 0x39EC0, symBinAddr: 0x10003DF3C, symSize: 0x410 }
  - { offsetInCU: 0x256A2, offset: 0x256A2, size: 0x8, addend: 0x0, symName: __ZNSt3__112__hash_tableINS_12basic_stringIcNS_11char_traitsIcEENS_9allocatorIcEEEENS_4hashIS6_EENS_8equal_toIS6_EENS4_IS6_EEE16__construct_nodeIJRKS6_EEENS_10unique_ptrINS_11__hash_nodeIS6_PvEENS_22__hash_node_destructorINS4_ISJ_EEEEEEDpOT_, symObjAddr: 0x3A2D0, symBinAddr: 0x10003E34C, symSize: 0x9EC }
  - { offsetInCU: 0x25707, offset: 0x25707, size: 0x8, addend: 0x0, symName: __ZNKSt3__110unique_ptrINS_11__hash_nodeINS_12basic_stringIcNS_11char_traitsIcEENS_9allocatorIcEEEEPvEENS_22__hash_node_destructorINS5_IS9_EEEEE3getB8ue170006Ev, symObjAddr: 0x3ACBC, symBinAddr: 0x10003ED38, symSize: 0x13C }
  - { offsetInCU: 0x2572D, offset: 0x2572D, size: 0x8, addend: 0x0, symName: __ZNSt3__110unique_ptrINS_11__hash_nodeINS_12basic_stringIcNS_11char_traitsIcEENS_9allocatorIcEEEEPvEENS_22__hash_node_destructorINS5_IS9_EEEEE7releaseB8ue170006Ev, symObjAddr: 0x3ADF8, symBinAddr: 0x10003EE74, symSize: 0x20C }
  - { offsetInCU: 0x25762, offset: 0x25762, size: 0x8, addend: 0x0, symName: __ZNSt3__110unique_ptrINS_11__hash_nodeINS_12basic_stringIcNS_11char_traitsIcEENS_9allocatorIcEEEEPvEENS_22__hash_node_destructorINS5_IS9_EEEEED1B8ue170006Ev, symObjAddr: 0x3B004, symBinAddr: 0x10003F080, symSize: 0x78 }
  - { offsetInCU: 0x2578C, offset: 0x2578C, size: 0x8, addend: 0x0, symName: __ZNSt3__116allocator_traitsINS_9allocatorINS_11__hash_nodeINS_12basic_stringIcNS_11char_traitsIcEENS1_IcEEEEPvEEEEE8allocateB8ue170006ERSA_m, symObjAddr: 0x3B07C, symBinAddr: 0x10003F0F8, symSize: 0x2C }
  - { offsetInCU: 0x257BF, offset: 0x257BF, size: 0x8, addend: 0x0, symName: __ZNSt3__122__hash_node_destructorINS_9allocatorINS_11__hash_nodeINS_12basic_stringIcNS_11char_traitsIcEENS1_IcEEEEPvEEEEEC1B8ue170006ERSA_b, symObjAddr: 0x3B0A8, symBinAddr: 0x10003F124, symSize: 0xCC }
  - { offsetInCU: 0x2580D, offset: 0x2580D, size: 0x8, addend: 0x0, symName: __ZNSt3__110unique_ptrINS_11__hash_nodeINS_12basic_stringIcNS_11char_traitsIcEENS_9allocatorIcEEEEPvEENS_22__hash_node_destructorINS5_IS9_EEEEEC1B8ue170006ILb1EvEEPS9_NS_16__dependent_typeINS_27__unique_ptr_deleter_sfinaeISC_EEXT_EE20__good_rval_ref_typeE, symObjAddr: 0x3B174, symBinAddr: 0x10003F1F0, symSize: 0x88 }
  - { offsetInCU: 0x2585E, offset: 0x2585E, size: 0x8, addend: 0x0, symName: __ZNSt3__116allocator_traitsINS_9allocatorINS_11__hash_nodeINS_12basic_stringIcNS_11char_traitsIcEENS1_IcEEEEPvEEEEE9constructB8ue170006IS7_JRKS7_EvEEvRSA_PT_DpOT0_, symObjAddr: 0x3B1FC, symBinAddr: 0x10003F278, symSize: 0x8C }
  - { offsetInCU: 0x258B5, offset: 0x258B5, size: 0x8, addend: 0x0, symName: __ZNKSt3__110unique_ptrINS_11__hash_nodeINS_12basic_stringIcNS_11char_traitsIcEENS_9allocatorIcEEEEPvEENS_22__hash_node_destructorINS5_IS9_EEEEEptB8ue170006Ev, symObjAddr: 0x3B288, symBinAddr: 0x10003F304, symSize: 0x13C }
  - { offsetInCU: 0x258DB, offset: 0x258DB, size: 0x8, addend: 0x0, symName: __ZNSt3__110unique_ptrINS_11__hash_nodeINS_12basic_stringIcNS_11char_traitsIcEENS_9allocatorIcEEEEPvEENS_22__hash_node_destructorINS5_IS9_EEEEE11get_deleterB8ue170006Ev, symObjAddr: 0x3B3C4, symBinAddr: 0x10003F440, symSize: 0xF8 }
  - { offsetInCU: 0x25901, offset: 0x25901, size: 0x8, addend: 0x0, symName: __ZNSt3__19allocatorINS_11__hash_nodeINS_12basic_stringIcNS_11char_traitsIcEENS0_IcEEEEPvEEE8allocateB8ue170006Em, symObjAddr: 0x3B4BC, symBinAddr: 0x10003F538, symSize: 0xD0 }
  - { offsetInCU: 0x25940, offset: 0x25940, size: 0x8, addend: 0x0, symName: __ZNSt3__116allocator_traitsINS_9allocatorINS_11__hash_nodeINS_12basic_stringIcNS_11char_traitsIcEENS1_IcEEEEPvEEEEE8max_sizeB8ue170006ISA_vEEmRKSA_, symObjAddr: 0x3B58C, symBinAddr: 0x10003F608, symSize: 0x24 }
  - { offsetInCU: 0x2596E, offset: 0x2596E, size: 0x8, addend: 0x0, symName: __ZNKSt3__19allocatorINS_11__hash_nodeINS_12basic_stringIcNS_11char_traitsIcEENS0_IcEEEEPvEEE8max_sizeB8ue170006Ev, symObjAddr: 0x3B5B0, symBinAddr: 0x10003F62C, symSize: 0x50 }
  - { offsetInCU: 0x25994, offset: 0x25994, size: 0x8, addend: 0x0, symName: __ZNSt3__122__hash_node_destructorINS_9allocatorINS_11__hash_nodeINS_12basic_stringIcNS_11char_traitsIcEENS1_IcEEEEPvEEEEEC2B8ue170006ERSA_b, symObjAddr: 0x3B600, symBinAddr: 0x10003F67C, symSize: 0x1A0 }
  - { offsetInCU: 0x259DC, offset: 0x259DC, size: 0x8, addend: 0x0, symName: __ZNSt3__110unique_ptrINS_11__hash_nodeINS_12basic_stringIcNS_11char_traitsIcEENS_9allocatorIcEEEEPvEENS_22__hash_node_destructorINS5_IS9_EEEEEC2B8ue170006ILb1EvEEPS9_NS_16__dependent_typeINS_27__unique_ptr_deleter_sfinaeISC_EEXT_EE20__good_rval_ref_typeE, symObjAddr: 0x3B7A0, symBinAddr: 0x10003F81C, symSize: 0x2BC }
  - { offsetInCU: 0x25A33, offset: 0x25A33, size: 0x8, addend: 0x0, symName: __ZNSt3__117__compressed_pairIPNS_11__hash_nodeINS_12basic_stringIcNS_11char_traitsIcEENS_9allocatorIcEEEEPvEENS_22__hash_node_destructorINS5_IS9_EEEEEC1B8ue170006IRSA_SD_EEOT_OT0_, symObjAddr: 0x3BA5C, symBinAddr: 0x10003FAD8, symSize: 0x88 }
  - { offsetInCU: 0x25A8B, offset: 0x25A8B, size: 0x8, addend: 0x0, symName: __ZNSt3__117__compressed_pairIPNS_11__hash_nodeINS_12basic_stringIcNS_11char_traitsIcEENS_9allocatorIcEEEEPvEENS_22__hash_node_destructorINS5_IS9_EEEEEC2B8ue170006IRSA_SD_EEOT_OT0_, symObjAddr: 0x3BAE4, symBinAddr: 0x10003FB60, symSize: 0x1B4 }
  - { offsetInCU: 0x25AE3, offset: 0x25AE3, size: 0x8, addend: 0x0, symName: __ZNSt3__122__compressed_pair_elemIPNS_11__hash_nodeINS_12basic_stringIcNS_11char_traitsIcEENS_9allocatorIcEEEEPvEELi0ELb0EEC2B8ue170006IRSA_vEEOT_, symObjAddr: 0x3BC98, symBinAddr: 0x10003FD14, symSize: 0x144 }
  - { offsetInCU: 0x25B25, offset: 0x25B25, size: 0x8, addend: 0x0, symName: __ZNSt3__122__compressed_pair_elemINS_22__hash_node_destructorINS_9allocatorINS_11__hash_nodeINS_12basic_stringIcNS_11char_traitsIcEENS2_IcEEEEPvEEEEEELi1ELb0EEC2B8ue170006ISC_vEEOT_, symObjAddr: 0x3BDDC, symBinAddr: 0x10003FE58, symSize: 0x84 }
  - { offsetInCU: 0x25B67, offset: 0x25B67, size: 0x8, addend: 0x0, symName: __ZNSt3__19allocatorINS_11__hash_nodeINS_12basic_stringIcNS_11char_traitsIcEENS0_IcEEEEPvEEE9constructB8ue170006IS6_JRKS6_EEEvPT_DpOT0_, symObjAddr: 0x3BE60, symBinAddr: 0x10003FEDC, symSize: 0xEC }
  - { offsetInCU: 0x25BBD, offset: 0x25BBD, size: 0x8, addend: 0x0, symName: __ZNKSt3__117__compressed_pairIPNS_11__hash_nodeINS_12basic_stringIcNS_11char_traitsIcEENS_9allocatorIcEEEEPvEENS_22__hash_node_destructorINS5_IS9_EEEEE5firstB8ue170006Ev, symObjAddr: 0x3BF4C, symBinAddr: 0x10003FFC8, symSize: 0x124 }
  - { offsetInCU: 0x25BE3, offset: 0x25BE3, size: 0x8, addend: 0x0, symName: __ZNKSt3__122__compressed_pair_elemIPNS_11__hash_nodeINS_12basic_stringIcNS_11char_traitsIcEENS_9allocatorIcEEEEPvEELi0ELb0EE5__getB8ue170006Ev, symObjAddr: 0x3C070, symBinAddr: 0x1000400EC, symSize: 0xAC }
  - { offsetInCU: 0x25C09, offset: 0x25C09, size: 0x8, addend: 0x0, symName: __ZNSt3__117__compressed_pairIPNS_11__hash_nodeINS_12basic_stringIcNS_11char_traitsIcEENS_9allocatorIcEEEEPvEENS_22__hash_node_destructorINS5_IS9_EEEEE6secondB8ue170006Ev, symObjAddr: 0x3C11C, symBinAddr: 0x100040198, symSize: 0x12C }
  - { offsetInCU: 0x25C2F, offset: 0x25C2F, size: 0x8, addend: 0x0, symName: __ZNSt3__122__compressed_pair_elemINS_22__hash_node_destructorINS_9allocatorINS_11__hash_nodeINS_12basic_stringIcNS_11char_traitsIcEENS2_IcEEEEPvEEEEEELi1ELb0EE5__getB8ue170006Ev, symObjAddr: 0x3C248, symBinAddr: 0x1000402C4, symSize: 0xAC }
  - { offsetInCU: 0x25C55, offset: 0x25C55, size: 0x8, addend: 0x0, symName: __ZNSt3__117__compressed_pairIPNS_11__hash_nodeINS_12basic_stringIcNS_11char_traitsIcEENS_9allocatorIcEEEEPvEENS_22__hash_node_destructorINS5_IS9_EEEEE5firstB8ue170006Ev, symObjAddr: 0x3C2F4, symBinAddr: 0x100040370, symSize: 0x124 }
  - { offsetInCU: 0x25C7B, offset: 0x25C7B, size: 0x8, addend: 0x0, symName: __ZNSt3__122__compressed_pair_elemIPNS_11__hash_nodeINS_12basic_stringIcNS_11char_traitsIcEENS_9allocatorIcEEEEPvEELi0ELb0EE5__getB8ue170006Ev, symObjAddr: 0x3C418, symBinAddr: 0x100040494, symSize: 0xAC }
  - { offsetInCU: 0x25CA1, offset: 0x25CA1, size: 0x8, addend: 0x0, symName: __ZNSt3__110unique_ptrINS_11__hash_nodeINS_12basic_stringIcNS_11char_traitsIcEENS_9allocatorIcEEEEPvEENS_22__hash_node_destructorINS5_IS9_EEEEED2B8ue170006Ev, symObjAddr: 0x3C4C4, symBinAddr: 0x100040540, symSize: 0x7C }
  - { offsetInCU: 0x25CCB, offset: 0x25CCB, size: 0x8, addend: 0x0, symName: __ZNSt3__110unique_ptrINS_11__hash_nodeINS_12basic_stringIcNS_11char_traitsIcEENS_9allocatorIcEEEEPvEENS_22__hash_node_destructorINS5_IS9_EEEEE5resetB8ue170006EPS9_, symObjAddr: 0x3C540, symBinAddr: 0x1000405BC, symSize: 0x2CC }
  - { offsetInCU: 0x25D0F, offset: 0x25D0F, size: 0x8, addend: 0x0, symName: __ZNSt3__122__hash_node_destructorINS_9allocatorINS_11__hash_nodeINS_12basic_stringIcNS_11char_traitsIcEENS1_IcEEEEPvEEEEEclB8ue170006EPS9_, symObjAddr: 0x3C80C, symBinAddr: 0x100040888, symSize: 0x2A4 }
  - { offsetInCU: 0x25D44, offset: 0x25D44, size: 0x8, addend: 0x0, symName: __ZNKSt3__117__compressed_pairINS_16__hash_node_baseIPNS_11__hash_nodeINS_12basic_stringIcNS_11char_traitsIcEENS_9allocatorIcEEEEPvEEEENS6_ISA_EEE5firstB8ue170006Ev, symObjAddr: 0x3CAB0, symBinAddr: 0x100040B2C, symSize: 0x124 }
  - { offsetInCU: 0x25D6A, offset: 0x25D6A, size: 0x8, addend: 0x0, symName: __ZNSt3__121__hash_const_iteratorIPNS_11__hash_nodeINS_12basic_stringIcNS_11char_traitsIcEENS_9allocatorIcEEEEPvEEEC1B8ue170006EPNS_16__hash_node_baseISA_EE, symObjAddr: 0x3CBD4, symBinAddr: 0x100040C50, symSize: 0x80 }
  - { offsetInCU: 0x25DA3, offset: 0x25DA3, size: 0x8, addend: 0x0, symName: __ZNKSt3__122__compressed_pair_elemINS_16__hash_node_baseIPNS_11__hash_nodeINS_12basic_stringIcNS_11char_traitsIcEENS_9allocatorIcEEEEPvEEEELi0ELb0EE5__getB8ue170006Ev, symObjAddr: 0x3CC54, symBinAddr: 0x100040CD0, symSize: 0xAC }
  - { offsetInCU: 0x25DC9, offset: 0x25DC9, size: 0x8, addend: 0x0, symName: __ZNSt3__121__hash_const_iteratorIPNS_11__hash_nodeINS_12basic_stringIcNS_11char_traitsIcEENS_9allocatorIcEEEEPvEEEC2B8ue170006EPNS_16__hash_node_baseISA_EE, symObjAddr: 0x3CD00, symBinAddr: 0x100040D7C, symSize: 0xC8 }
  - { offsetInCU: 0x25E02, offset: 0x25E02, size: 0x8, addend: 0x0, symName: __ZNSt3__16vectorI11TransactionNS_9allocatorIS1_EEE19__copy_assign_allocB8ue170006ERKS4_, symObjAddr: 0x3CDC8, symBinAddr: 0x100040E44, symSize: 0xBC }
  - { offsetInCU: 0x25E37, offset: 0x25E37, size: 0x8, addend: 0x0, symName: __ZNSt3__16vectorI11TransactionNS_9allocatorIS1_EEE6assignIPS1_Li0EEEvT_S7_, symObjAddr: 0x3CE84, symBinAddr: 0x100040F00, symSize: 0x9C }
  - { offsetInCU: 0x25E8C, offset: 0x25E8C, size: 0x8, addend: 0x0, symName: __ZNSt3__16vectorI11TransactionNS_9allocatorIS1_EEE19__copy_assign_allocB8ue170006ERKS4_NS_17integral_constantIbLb0EEE, symObjAddr: 0x3CF20, symBinAddr: 0x100040F9C, symSize: 0x64 }
  - { offsetInCU: 0x25ECA, offset: 0x25ECA, size: 0x8, addend: 0x0, symName: __ZNSt3__16vectorI11TransactionNS_9allocatorIS1_EEE18__assign_with_sizeB8ue170006IPS1_S6_EEvT_T0_l, symObjAddr: 0x3CF84, symBinAddr: 0x100041000, symSize: 0x494 }
  - { offsetInCU: 0x25F81, offset: 0x25F81, size: 0x8, addend: 0x0, symName: __ZNSt3__16vectorI11TransactionNS_9allocatorIS1_EEE18__construct_at_endIPS1_S6_EEvT_T0_m, symObjAddr: 0x3D930, symBinAddr: 0x1000419AC, symSize: 0x494 }
  - { offsetInCU: 0x25FFF, offset: 0x25FFF, size: 0x8, addend: 0x0, symName: __ZNSt3__16vectorI11TransactionNS_9allocatorIS1_EEE17__destruct_at_endB8ue170006EPS1_, symObjAddr: 0x3DFF0, symBinAddr: 0x10004206C, symSize: 0x90 }
  - { offsetInCU: 0x26043, offset: 0x26043, size: 0x8, addend: 0x0, symName: __ZNSt3__16vectorI11TransactionNS_9allocatorIS1_EEE13__vdeallocateEv, symObjAddr: 0x3E080, symBinAddr: 0x1000420FC, symSize: 0x244 }
  - { offsetInCU: 0x2606B, offset: 0x2606B, size: 0x8, addend: 0x0, symName: __ZNSt3__16vectorI11TransactionNS_9allocatorIS1_EEE11__vallocateB8ue170006Em, symObjAddr: 0x3E2C4, symBinAddr: 0x100042340, symSize: 0x5F0 }
  - { offsetInCU: 0x260B5, offset: 0x260B5, size: 0x8, addend: 0x0, symName: __ZNKSt3__16vectorI11TransactionNS_9allocatorIS1_EEE11__recommendB8ue170006Em, symObjAddr: 0x3E8B4, symBinAddr: 0x100042930, symSize: 0x45C }
  - { offsetInCU: 0x2612D, offset: 0x2612D, size: 0x8, addend: 0x0, symName: __ZNSt3__16vectorI11TransactionNS_9allocatorIS1_EEE21_ConstructTransactionC1B8ue170006ERS4_m, symObjAddr: 0x3EF48, symBinAddr: 0x100042FC4, symSize: 0x88 }
  - { offsetInCU: 0x26175, offset: 0x26175, size: 0x8, addend: 0x0, symName: __ZNSt3__16vectorI11TransactionNS_9allocatorIS1_EEE21_ConstructTransactionD1B8ue170006Ev, symObjAddr: 0x3F304, symBinAddr: 0x100043380, symSize: 0x78 }
  - { offsetInCU: 0x2619F, offset: 0x2619F, size: 0x8, addend: 0x0, symName: __ZNSt3__16vectorI11TransactionNS_9allocatorIS1_EEE21_ConstructTransactionC2B8ue170006ERS4_m, symObjAddr: 0x3F37C, symBinAddr: 0x1000433F8, symSize: 0x3E0 }
  - { offsetInCU: 0x261E7, offset: 0x261E7, size: 0x8, addend: 0x0, symName: __ZNKSt3__16vectorI11TransactionNS_9allocatorIS1_EEE19__annotate_increaseB8ue170006Em, symObjAddr: 0x3F75C, symBinAddr: 0x1000437D8, symSize: 0x46C }
  - { offsetInCU: 0x2623F, offset: 0x2623F, size: 0x8, addend: 0x0, symName: __ZNSt3__14pairIP11TransactionS2_EC1B8ue170006IS2_S2_LPv0EEEOT_OT0_, symObjAddr: 0x40910, symBinAddr: 0x10004498C, symSize: 0x88 }
  - { offsetInCU: 0x2629D, offset: 0x2629D, size: 0x8, addend: 0x0, symName: __ZNSt3__14pairIP11TransactionS2_EC2B8ue170006IS2_S2_LPv0EEEOT_OT0_, symObjAddr: 0x40998, symBinAddr: 0x100044A14, symSize: 0x210 }
  - { offsetInCU: 0x262FB, offset: 0x262FB, size: 0x8, addend: 0x0, symName: __ZNSt3__129_AllocatorDestroyRangeReverseINS_9allocatorI11TransactionEEPS2_EC1B8ue170006ERS3_RS4_S7_, symObjAddr: 0x40DE4, symBinAddr: 0x100044E60, symSize: 0x90 }
  - { offsetInCU: 0x26352, offset: 0x26352, size: 0x8, addend: 0x0, symName: __ZNSt3__116allocator_traitsINS_9allocatorI11TransactionEEE9constructB8ue170006IS2_JRS2_EvEEvRS3_PT_DpOT0_, symObjAddr: 0x40E74, symBinAddr: 0x100044EF0, symSize: 0x8C }
  - { offsetInCU: 0x263A9, offset: 0x263A9, size: 0x8, addend: 0x0, symName: __ZNSt3__128__exception_guard_exceptionsINS_29_AllocatorDestroyRangeReverseINS_9allocatorI11TransactionEEPS3_EEE10__completeB8ue170006Ev, symObjAddr: 0x40F00, symBinAddr: 0x100044F7C, symSize: 0xD8 }
  - { offsetInCU: 0x263CF, offset: 0x263CF, size: 0x8, addend: 0x0, symName: __ZNSt3__128__exception_guard_exceptionsINS_29_AllocatorDestroyRangeReverseINS_9allocatorI11TransactionEEPS3_EEED1B8ue170006Ev, symObjAddr: 0x40FD8, symBinAddr: 0x100045054, symSize: 0x78 }
  - { offsetInCU: 0x263F9, offset: 0x263F9, size: 0x8, addend: 0x0, symName: __ZNSt3__128__exception_guard_exceptionsINS_29_AllocatorDestroyRangeReverseINS_9allocatorI11TransactionEEPS3_EEEC1B8ue170006ES6_, symObjAddr: 0x41050, symBinAddr: 0x1000450CC, symSize: 0x84 }
  - { offsetInCU: 0x26432, offset: 0x26432, size: 0x8, addend: 0x0, symName: __ZNSt3__128__exception_guard_exceptionsINS_29_AllocatorDestroyRangeReverseINS_9allocatorI11TransactionEEPS3_EEEC2B8ue170006ES6_, symObjAddr: 0x410D4, symBinAddr: 0x100045150, symSize: 0xF8 }
  - { offsetInCU: 0x2646B, offset: 0x2646B, size: 0x8, addend: 0x0, symName: __ZNSt3__129_AllocatorDestroyRangeReverseINS_9allocatorI11TransactionEEPS2_EC2B8ue170006ERS3_RS4_S7_, symObjAddr: 0x411CC, symBinAddr: 0x100045248, symSize: 0x20C }
  - { offsetInCU: 0x264C2, offset: 0x264C2, size: 0x8, addend: 0x0, symName: __ZNSt3__19allocatorI11TransactionE9constructB8ue170006IS1_JRS1_EEEvPT_DpOT0_, symObjAddr: 0x413D8, symBinAddr: 0x100045454, symSize: 0xEC }
  - { offsetInCU: 0x26518, offset: 0x26518, size: 0x8, addend: 0x0, symName: __ZN11TransactionC1ERKS_, symObjAddr: 0x414C4, symBinAddr: 0x100045540, symSize: 0x80 }
  - { offsetInCU: 0x2654D, offset: 0x2654D, size: 0x8, addend: 0x0, symName: __ZN11TransactionC2ERKS_, symObjAddr: 0x41544, symBinAddr: 0x1000455C0, symSize: 0x350 }
  - { offsetInCU: 0x26582, offset: 0x26582, size: 0x8, addend: 0x0, symName: __ZNSt3__128__exception_guard_exceptionsINS_29_AllocatorDestroyRangeReverseINS_9allocatorI11TransactionEEPS3_EEED2B8ue170006Ev, symObjAddr: 0x41894, symBinAddr: 0x100045910, symSize: 0x17C }
  - { offsetInCU: 0x265AC, offset: 0x265AC, size: 0x8, addend: 0x0, symName: __ZNKSt3__129_AllocatorDestroyRangeReverseINS_9allocatorI11TransactionEEPS2_EclB8ue170006Ev, symObjAddr: 0x41A10, symBinAddr: 0x100045A8C, symSize: 0x40C }
  - { offsetInCU: 0x265D3, offset: 0x265D3, size: 0x8, addend: 0x0, symName: __ZNSt3__116reverse_iteratorIP11TransactionEC1B8ue170006ES2_, symObjAddr: 0x420F8, symBinAddr: 0x100046174, symSize: 0x80 }
  - { offsetInCU: 0x2660B, offset: 0x2660B, size: 0x8, addend: 0x0, symName: __ZNSt3__116reverse_iteratorIP11TransactionEppB8ue170006Ev, symObjAddr: 0x42280, symBinAddr: 0x1000462FC, symSize: 0x1B0 }
  - { offsetInCU: 0x26631, offset: 0x26631, size: 0x8, addend: 0x0, symName: __ZNKSt3__116reverse_iteratorIP11TransactionE4baseB8ue170006Ev, symObjAddr: 0x42430, symBinAddr: 0x1000464AC, symSize: 0xB0 }
  - { offsetInCU: 0x2665D, offset: 0x2665D, size: 0x8, addend: 0x0, symName: __ZNSt3__119__to_address_helperINS_16reverse_iteratorIP11TransactionEEvE6__callB8ue170006ERKS4_, symObjAddr: 0x424E0, symBinAddr: 0x10004655C, symSize: 0x70 }
  - { offsetInCU: 0x26680, offset: 0x26680, size: 0x8, addend: 0x0, symName: __ZNKSt3__116reverse_iteratorIP11TransactionEptB8ue170006Ev, symObjAddr: 0x42550, symBinAddr: 0x1000465CC, symSize: 0x6C }
  - { offsetInCU: 0x266A6, offset: 0x266A6, size: 0x8, addend: 0x0, symName: __ZNKSt3__116reverse_iteratorIP11TransactionEdeB8ue170006Ev, symObjAddr: 0x425BC, symBinAddr: 0x100046638, symSize: 0x184 }
  - { offsetInCU: 0x266DA, offset: 0x266DA, size: 0x8, addend: 0x0, symName: __ZNSt3__116reverse_iteratorIP11TransactionEC2B8ue170006ES2_, symObjAddr: 0x42740, symBinAddr: 0x1000467BC, symSize: 0x10C }
  - { offsetInCU: 0x26712, offset: 0x26712, size: 0x8, addend: 0x0, symName: __ZNSt3__118__unwrap_iter_implIP11TransactionLb1EE8__unwrapB8ue170006ES2_, symObjAddr: 0x4284C, symBinAddr: 0x1000468C8, symSize: 0x24 }
  - { offsetInCU: 0x26735, offset: 0x26735, size: 0x8, addend: 0x0, symName: __ZNSt3__118__unwrap_iter_implIP11TransactionLb1EE8__rewrapB8ue170006ES2_S2_, symObjAddr: 0x42870, symBinAddr: 0x1000468EC, symSize: 0x140 }
  - { offsetInCU: 0x26766, offset: 0x26766, size: 0x8, addend: 0x0, symName: __ZNSt3__16vectorI11TransactionNS_9allocatorIS1_EEE21_ConstructTransactionD2B8ue170006Ev, symObjAddr: 0x429B0, symBinAddr: 0x100046A2C, symSize: 0x390 }
  - { offsetInCU: 0x26790, offset: 0x26790, size: 0x8, addend: 0x0, symName: __ZNKSt3__16vectorI11TransactionNS_9allocatorIS1_EEE17__annotate_shrinkB8ue170006Em, symObjAddr: 0x42D40, symBinAddr: 0x100046DBC, symSize: 0x378 }
  - { offsetInCU: 0x267D0, offset: 0x267D0, size: 0x8, addend: 0x0, symName: __ZNKSt3__111__copy_loopINS_17_ClassicAlgPolicyEEclB8ue170006IP11TransactionS5_S5_EENS_4pairIT_T1_EES7_T0_S8_, symObjAddr: 0x43918, symBinAddr: 0x100047994, symSize: 0x66C }
  - { offsetInCU: 0x26845, offset: 0x26845, size: 0x8, addend: 0x0, symName: __ZN11TransactionaSERKS_, symObjAddr: 0x43FB0, symBinAddr: 0x10004802C, symSize: 0x424 }
  - { offsetInCU: 0x26876, offset: 0x26876, size: 0x8, addend: 0x0, symName: __ZNSt3__16vectorI11TransactionNS_9allocatorIS1_EEE5clearB8ue170006Ev, symObjAddr: 0x443D4, symBinAddr: 0x100048450, symSize: 0x88 }
  - { offsetInCU: 0x268AB, offset: 0x268AB, size: 0x8, addend: 0x0, symName: __ZNSt3__16vectorI11TransactionNS_9allocatorIS1_EEE9__end_capB8ue170006Ev, symObjAddr: 0x4445C, symBinAddr: 0x1000484D8, symSize: 0x100 }
  - { offsetInCU: 0x268D1, offset: 0x268D1, size: 0x8, addend: 0x0, symName: __ZNSt3__117__compressed_pairIP11TransactionNS_9allocatorIS1_EEE5firstB8ue170006Ev, symObjAddr: 0x4455C, symBinAddr: 0x1000485D8, symSize: 0x124 }
  - { offsetInCU: 0x268F7, offset: 0x268F7, size: 0x8, addend: 0x0, symName: __ZNSt3__122__compressed_pair_elemIP11TransactionLi0ELb0EE5__getB8ue170006Ev, symObjAddr: 0x44680, symBinAddr: 0x1000486FC, symSize: 0xAC }
  - { offsetInCU: 0x2691D, offset: 0x2691D, size: 0x8, addend: 0x0, symName: __ZNKSt3__16vectorI11TransactionNS_9allocatorIS1_EEE8max_sizeEv, symObjAddr: 0x4472C, symBinAddr: 0x1000487A8, symSize: 0x3B8 }
  - { offsetInCU: 0x26946, offset: 0x26946, size: 0x8, addend: 0x0, symName: __ZNKSt3__16vectorI11TransactionNS_9allocatorIS1_EEE20__throw_length_errorB8ue170006Ev, symObjAddr: 0x44AE4, symBinAddr: 0x100048B60, symSize: 0x80 }
  - { offsetInCU: 0x2696C, offset: 0x2696C, size: 0x8, addend: 0x0, symName: __ZNKSt3__16vectorI11TransactionNS_9allocatorIS1_EEE14__annotate_newB8ue170006Em, symObjAddr: 0x44DF0, symBinAddr: 0x100048E6C, symSize: 0x378 }
  - { offsetInCU: 0x269AC, offset: 0x269AC, size: 0x8, addend: 0x0, symName: __ZNSt3__116allocator_traitsINS_9allocatorI11TransactionEEE8max_sizeB8ue170006IS3_vEEmRKS3_, symObjAddr: 0x4526C, symBinAddr: 0x1000492E8, symSize: 0x24 }
  - { offsetInCU: 0x269DA, offset: 0x269DA, size: 0x8, addend: 0x0, symName: __ZNKSt3__16vectorI11TransactionNS_9allocatorIS1_EEE7__allocB8ue170006Ev, symObjAddr: 0x45290, symBinAddr: 0x10004930C, symSize: 0xE4 }
  - { offsetInCU: 0x26A00, offset: 0x26A00, size: 0x8, addend: 0x0, symName: __ZNSt3__114numeric_limitsIlE3maxB8ue170006Ev, symObjAddr: 0x45374, symBinAddr: 0x1000493F0, symSize: 0x14 }
  - { offsetInCU: 0x26A14, offset: 0x26A14, size: 0x8, addend: 0x0, symName: __ZNKSt3__19allocatorI11TransactionE8max_sizeB8ue170006Ev, symObjAddr: 0x45648, symBinAddr: 0x1000496C4, symSize: 0x50 }
  - { offsetInCU: 0x26A3A, offset: 0x26A3A, size: 0x8, addend: 0x0, symName: __ZNKSt3__117__compressed_pairIP11TransactionNS_9allocatorIS1_EEE6secondB8ue170006Ev, symObjAddr: 0x45698, symBinAddr: 0x100049714, symSize: 0x108 }
  - { offsetInCU: 0x26A60, offset: 0x26A60, size: 0x8, addend: 0x0, symName: __ZNKSt3__122__compressed_pair_elemINS_9allocatorI11TransactionEELi1ELb1EE5__getB8ue170006Ev, symObjAddr: 0x457A0, symBinAddr: 0x10004981C, symSize: 0x74 }
  - { offsetInCU: 0x26A86, offset: 0x26A86, size: 0x8, addend: 0x0, symName: __ZNSt3__123__libcpp_numeric_limitsIlLb1EE3maxB8ue170006Ev, symObjAddr: 0x45814, symBinAddr: 0x100049890, symSize: 0x8 }
  - { offsetInCU: 0x26A9A, offset: 0x26A9A, size: 0x8, addend: 0x0, symName: __ZNSt12length_errorC1B8ue170006EPKc, symObjAddr: 0x458D0, symBinAddr: 0x10004994C, symSize: 0x80 }
  - { offsetInCU: 0x26AD2, offset: 0x26AD2, size: 0x8, addend: 0x0, symName: __ZNSt12length_errorC2B8ue170006EPKc, symObjAddr: 0x45950, symBinAddr: 0x1000499CC, symSize: 0x128 }
  - { offsetInCU: 0x26B0A, offset: 0x26B0A, size: 0x8, addend: 0x0, symName: __ZNSt3__19allocatorI11TransactionE8allocateB8ue170006Em, symObjAddr: 0x45A78, symBinAddr: 0x100049AF4, symSize: 0xD0 }
  - { offsetInCU: 0x26B3E, offset: 0x26B3E, size: 0x8, addend: 0x0, symName: __ZN4UserC2ERKS_, symObjAddr: 0x45B70, symBinAddr: 0x100049BEC, symSize: 0x4E8 }
  - { offsetInCU: 0x26B73, offset: 0x26B73, size: 0x8, addend: 0x0, symName: __ZNSt3__113unordered_setINS_12basic_stringIcNS_11char_traitsIcEENS_9allocatorIcEEEENS_4hashIS6_EENS_8equal_toIS6_EENS4_IS6_EEEC1ERKSC_, symObjAddr: 0x46058, symBinAddr: 0x10004A0D4, symSize: 0x80 }
  - { offsetInCU: 0x26BAE, offset: 0x26BAE, size: 0x8, addend: 0x0, symName: __ZNSt3__16vectorI11TransactionNS_9allocatorIS1_EEEC1ERKS4_, symObjAddr: 0x460D8, symBinAddr: 0x10004A154, symSize: 0x80 }
  - { offsetInCU: 0x26BE9, offset: 0x26BE9, size: 0x8, addend: 0x0, symName: __ZNSt3__113unordered_setINS_12basic_stringIcNS_11char_traitsIcEENS_9allocatorIcEEEENS_4hashIS6_EENS_8equal_toIS6_EENS4_IS6_EEEC2ERKSC_, symObjAddr: 0x46158, symBinAddr: 0x10004A1D4, symSize: 0x534 }
  - { offsetInCU: 0x26C26, offset: 0x26C26, size: 0x8, addend: 0x0, symName: __ZNSt3__112__hash_tableINS_12basic_stringIcNS_11char_traitsIcEENS_9allocatorIcEEEENS_4hashIS6_EENS_8equal_toIS6_EENS4_IS6_EEEC1ERKSC_, symObjAddr: 0x4668C, symBinAddr: 0x10004A708, symSize: 0x80 }
  - { offsetInCU: 0x26C61, offset: 0x26C61, size: 0x8, addend: 0x0, symName: __ZNSt3__112__hash_tableINS_12basic_stringIcNS_11char_traitsIcEENS_9allocatorIcEEEENS_4hashIS6_EENS_8equal_toIS6_EENS4_IS6_EEE15__rehash_uniqueB8ue170006Em, symObjAddr: 0x4670C, symBinAddr: 0x10004A788, symSize: 0x74 }
  - { offsetInCU: 0x26C96, offset: 0x26C96, size: 0x8, addend: 0x0, symName: __ZNKSt3__113unordered_setINS_12basic_stringIcNS_11char_traitsIcEENS_9allocatorIcEEEENS_4hashIS6_EENS_8equal_toIS6_EENS4_IS6_EEE12bucket_countB8ue170006Ev, symObjAddr: 0x46780, symBinAddr: 0x10004A7FC, symSize: 0xB0 }
  - { offsetInCU: 0x26CBC, offset: 0x26CBC, size: 0x8, addend: 0x0, symName: __ZNSt3__113unordered_setINS_12basic_stringIcNS_11char_traitsIcEENS_9allocatorIcEEEENS_4hashIS6_EENS_8equal_toIS6_EENS4_IS6_EEE6insertINS_21__hash_const_iteratorIPNS_11__hash_nodeIS6_PvEEEEEEvT_SK_, symObjAddr: 0x46830, symBinAddr: 0x10004A8AC, symSize: 0x3D8 }
  - { offsetInCU: 0x26D14, offset: 0x26D14, size: 0x8, addend: 0x0, symName: __ZNKSt3__113unordered_setINS_12basic_stringIcNS_11char_traitsIcEENS_9allocatorIcEEEENS_4hashIS6_EENS_8equal_toIS6_EENS4_IS6_EEE5beginB8ue170006Ev, symObjAddr: 0x46C08, symBinAddr: 0x10004AC84, symSize: 0x2C0 }
  - { offsetInCU: 0x26D3B, offset: 0x26D3B, size: 0x8, addend: 0x0, symName: __ZNKSt3__113unordered_setINS_12basic_stringIcNS_11char_traitsIcEENS_9allocatorIcEEEENS_4hashIS6_EENS_8equal_toIS6_EENS4_IS6_EEE3endB8ue170006Ev, symObjAddr: 0x46EC8, symBinAddr: 0x10004AF44, symSize: 0x2C0 }
  - { offsetInCU: 0x26D62, offset: 0x26D62, size: 0x8, addend: 0x0, symName: __ZNSt3__112__hash_tableINS_12basic_stringIcNS_11char_traitsIcEENS_9allocatorIcEEEENS_4hashIS6_EENS_8equal_toIS6_EENS4_IS6_EEEC2ERKSC_, symObjAddr: 0x47188, symBinAddr: 0x10004B204, symSize: 0x610 }
  - { offsetInCU: 0x26D9F, offset: 0x26D9F, size: 0x8, addend: 0x0, symName: __ZNSt3__116allocator_traitsINS_9allocatorIPNS_16__hash_node_baseIPNS_11__hash_nodeINS_12basic_stringIcNS_11char_traitsIcEENS1_IcEEEEPvEEEEEEE37select_on_container_copy_constructionB8ue170006ISE_vvEESE_RKSE_, symObjAddr: 0x47798, symBinAddr: 0x10004B814, symSize: 0x10 }
  - { offsetInCU: 0x26DCE, offset: 0x26DCE, size: 0x8, addend: 0x0, symName: __ZNKSt3__125__bucket_list_deallocatorINS_9allocatorIPNS_16__hash_node_baseIPNS_11__hash_nodeINS_12basic_stringIcNS_11char_traitsIcEENS1_IcEEEEPvEEEEEEE7__allocB8ue170006Ev, symObjAddr: 0x477A8, symBinAddr: 0x10004B824, symSize: 0xDC }
  - { offsetInCU: 0x26DF4, offset: 0x26DF4, size: 0x8, addend: 0x0, symName: __ZNSt3__125__bucket_list_deallocatorINS_9allocatorIPNS_16__hash_node_baseIPNS_11__hash_nodeINS_12basic_stringIcNS_11char_traitsIcEENS1_IcEEEEPvEEEEEEEC1B8ue170006ERKSE_m, symObjAddr: 0x47884, symBinAddr: 0x10004B900, symSize: 0x88 }
  - { offsetInCU: 0x26E3C, offset: 0x26E3C, size: 0x8, addend: 0x0, symName: __ZNSt3__110unique_ptrIA_PNS_16__hash_node_baseIPNS_11__hash_nodeINS_12basic_stringIcNS_11char_traitsIcEENS_9allocatorIcEEEEPvEEEENS_25__bucket_list_deallocatorINS6_ISD_EEEEEC1B8ue170006ILb1EvEEDnNS_16__dependent_typeINS_27__unique_ptr_deleter_sfinaeISH_EEXT_EE20__good_rval_ref_typeE, symObjAddr: 0x4790C, symBinAddr: 0x10004B988, symSize: 0x88 }
  - { offsetInCU: 0x26E8C, offset: 0x26E8C, size: 0x8, addend: 0x0, symName: __ZNSt3__116allocator_traitsINS_9allocatorINS_11__hash_nodeINS_12basic_stringIcNS_11char_traitsIcEENS1_IcEEEEPvEEEEE37select_on_container_copy_constructionB8ue170006ISA_vvEESA_RKSA_, symObjAddr: 0x47994, symBinAddr: 0x10004BA10, symSize: 0x10 }
  - { offsetInCU: 0x26EBB, offset: 0x26EBB, size: 0x8, addend: 0x0, symName: __ZNKSt3__112__hash_tableINS_12basic_stringIcNS_11char_traitsIcEENS_9allocatorIcEEEENS_4hashIS6_EENS_8equal_toIS6_EENS4_IS6_EEE12__node_allocB8ue170006Ev, symObjAddr: 0x479A4, symBinAddr: 0x10004BA20, symSize: 0xE4 }
  - { offsetInCU: 0x26EE7, offset: 0x26EE7, size: 0x8, addend: 0x0, symName: __ZNSt3__117__compressed_pairINS_16__hash_node_baseIPNS_11__hash_nodeINS_12basic_stringIcNS_11char_traitsIcEENS_9allocatorIcEEEEPvEEEENS6_ISA_EEEC1B8ue170006INS_18__default_init_tagESD_EEOT_OT0_, symObjAddr: 0x47A88, symBinAddr: 0x10004BB04, symSize: 0x88 }
  - { offsetInCU: 0x26F3F, offset: 0x26F3F, size: 0x8, addend: 0x0, symName: __ZNSt3__117__compressed_pairImNS_4hashINS_12basic_stringIcNS_11char_traitsIcEENS_9allocatorIcEEEEEEEC1B8ue170006IiRKS8_EEOT_OT0_, symObjAddr: 0x47B10, symBinAddr: 0x10004BB8C, symSize: 0x88 }
  - { offsetInCU: 0x26F97, offset: 0x26F97, size: 0x8, addend: 0x0, symName: __ZNKSt3__117__compressed_pairImNS_9allocatorIPNS_16__hash_node_baseIPNS_11__hash_nodeINS_12basic_stringIcNS_11char_traitsIcEENS1_IcEEEEPvEEEEEEE6secondB8ue170006Ev, symObjAddr: 0x47B98, symBinAddr: 0x10004BC14, symSize: 0x108 }
  - { offsetInCU: 0x26FBD, offset: 0x26FBD, size: 0x8, addend: 0x0, symName: __ZNKSt3__122__compressed_pair_elemINS_9allocatorIPNS_16__hash_node_baseIPNS_11__hash_nodeINS_12basic_stringIcNS_11char_traitsIcEENS1_IcEEEEPvEEEEEELi1ELb1EE5__getB8ue170006Ev, symObjAddr: 0x47CA0, symBinAddr: 0x10004BD1C, symSize: 0x74 }
  - { offsetInCU: 0x26FE3, offset: 0x26FE3, size: 0x8, addend: 0x0, symName: __ZNSt3__125__bucket_list_deallocatorINS_9allocatorIPNS_16__hash_node_baseIPNS_11__hash_nodeINS_12basic_stringIcNS_11char_traitsIcEENS1_IcEEEEPvEEEEEEEC2B8ue170006ERKSE_m, symObjAddr: 0x47D14, symBinAddr: 0x10004BD90, symSize: 0x298 }
  - { offsetInCU: 0x27031, offset: 0x27031, size: 0x8, addend: 0x0, symName: __ZNSt3__117__compressed_pairImNS_9allocatorIPNS_16__hash_node_baseIPNS_11__hash_nodeINS_12basic_stringIcNS_11char_traitsIcEENS1_IcEEEEPvEEEEEEEC1B8ue170006IRmRKSE_EEOT_OT0_, symObjAddr: 0x47FAC, symBinAddr: 0x10004C028, symSize: 0x88 }
  - { offsetInCU: 0x27089, offset: 0x27089, size: 0x8, addend: 0x0, symName: __ZNSt3__117__compressed_pairImNS_9allocatorIPNS_16__hash_node_baseIPNS_11__hash_nodeINS_12basic_stringIcNS_11char_traitsIcEENS1_IcEEEEPvEEEEEEEC2B8ue170006IRmRKSE_EEOT_OT0_, symObjAddr: 0x48034, symBinAddr: 0x10004C0B0, symSize: 0x170 }
  - { offsetInCU: 0x270E1, offset: 0x270E1, size: 0x8, addend: 0x0, symName: __ZNSt3__122__compressed_pair_elemImLi0ELb0EEC2B8ue170006IRmvEEOT_, symObjAddr: 0x481A4, symBinAddr: 0x10004C220, symSize: 0x144 }
  - { offsetInCU: 0x27123, offset: 0x27123, size: 0x8, addend: 0x0, symName: __ZNSt3__122__compressed_pair_elemINS_9allocatorIPNS_16__hash_node_baseIPNS_11__hash_nodeINS_12basic_stringIcNS_11char_traitsIcEENS1_IcEEEEPvEEEEEELi1ELb1EEC2B8ue170006IRKSE_vEEOT_, symObjAddr: 0x482E8, symBinAddr: 0x10004C364, symSize: 0x58 }
  - { offsetInCU: 0x27165, offset: 0x27165, size: 0x8, addend: 0x0, symName: __ZNSt3__110unique_ptrIA_PNS_16__hash_node_baseIPNS_11__hash_nodeINS_12basic_stringIcNS_11char_traitsIcEENS_9allocatorIcEEEEPvEEEENS_25__bucket_list_deallocatorINS6_ISD_EEEEEC2B8ue170006ILb1EvEEDnNS_16__dependent_typeINS_27__unique_ptr_deleter_sfinaeISH_EEXT_EE20__good_rval_ref_typeE, symObjAddr: 0x48340, symBinAddr: 0x10004C3BC, symSize: 0x2D4 }
  - { offsetInCU: 0x271B8, offset: 0x271B8, size: 0x8, addend: 0x0, symName: __ZNSt3__117__compressed_pairIPPNS_16__hash_node_baseIPNS_11__hash_nodeINS_12basic_stringIcNS_11char_traitsIcEENS_9allocatorIcEEEEPvEEEENS_25__bucket_list_deallocatorINS6_ISD_EEEEEC1B8ue170006IDnSH_EEOT_OT0_, symObjAddr: 0x48614, symBinAddr: 0x10004C690, symSize: 0x88 }
  - { offsetInCU: 0x27210, offset: 0x27210, size: 0x8, addend: 0x0, symName: __ZNSt3__117__compressed_pairIPPNS_16__hash_node_baseIPNS_11__hash_nodeINS_12basic_stringIcNS_11char_traitsIcEENS_9allocatorIcEEEEPvEEEENS_25__bucket_list_deallocatorINS6_ISD_EEEEEC2B8ue170006IDnSH_EEOT_OT0_, symObjAddr: 0x4869C, symBinAddr: 0x10004C718, symSize: 0x1B4 }
  - { offsetInCU: 0x27268, offset: 0x27268, size: 0x8, addend: 0x0, symName: __ZNSt3__122__compressed_pair_elemIPPNS_16__hash_node_baseIPNS_11__hash_nodeINS_12basic_stringIcNS_11char_traitsIcEENS_9allocatorIcEEEEPvEEEELi0ELb0EEC2B8ue170006IDnvEEOT_, symObjAddr: 0x48850, symBinAddr: 0x10004C8CC, symSize: 0xBC }
  - { offsetInCU: 0x272AA, offset: 0x272AA, size: 0x8, addend: 0x0, symName: __ZNSt3__122__compressed_pair_elemINS_25__bucket_list_deallocatorINS_9allocatorIPNS_16__hash_node_baseIPNS_11__hash_nodeINS_12basic_stringIcNS_11char_traitsIcEENS2_IcEEEEPvEEEEEEEELi1ELb0EEC2B8ue170006ISG_vEEOT_, symObjAddr: 0x4890C, symBinAddr: 0x10004C988, symSize: 0xC8 }
  - { offsetInCU: 0x272EC, offset: 0x272EC, size: 0x8, addend: 0x0, symName: __ZNSt3__125__bucket_list_deallocatorINS_9allocatorIPNS_16__hash_node_baseIPNS_11__hash_nodeINS_12basic_stringIcNS_11char_traitsIcEENS1_IcEEEEPvEEEEEEEC1B8ue170006EOSF_, symObjAddr: 0x489D4, symBinAddr: 0x10004CA50, symSize: 0x80 }
  - { offsetInCU: 0x27325, offset: 0x27325, size: 0x8, addend: 0x0, symName: __ZNSt3__125__bucket_list_deallocatorINS_9allocatorIPNS_16__hash_node_baseIPNS_11__hash_nodeINS_12basic_stringIcNS_11char_traitsIcEENS1_IcEEEEPvEEEEEEEC2B8ue170006EOSF_, symObjAddr: 0x48A54, symBinAddr: 0x10004CAD0, symSize: 0x144 }
  - { offsetInCU: 0x2735E, offset: 0x2735E, size: 0x8, addend: 0x0, symName: __ZNKSt3__117__compressed_pairINS_16__hash_node_baseIPNS_11__hash_nodeINS_12basic_stringIcNS_11char_traitsIcEENS_9allocatorIcEEEEPvEEEENS6_ISA_EEE6secondB8ue170006Ev, symObjAddr: 0x48B98, symBinAddr: 0x10004CC14, symSize: 0x108 }
  - { offsetInCU: 0x27384, offset: 0x27384, size: 0x8, addend: 0x0, symName: __ZNKSt3__122__compressed_pair_elemINS_9allocatorINS_11__hash_nodeINS_12basic_stringIcNS_11char_traitsIcEENS1_IcEEEEPvEEEELi1ELb1EE5__getB8ue170006Ev, symObjAddr: 0x48CA0, symBinAddr: 0x10004CD1C, symSize: 0x74 }
  - { offsetInCU: 0x273AA, offset: 0x273AA, size: 0x8, addend: 0x0, symName: __ZNSt3__117__compressed_pairINS_16__hash_node_baseIPNS_11__hash_nodeINS_12basic_stringIcNS_11char_traitsIcEENS_9allocatorIcEEEEPvEEEENS6_ISA_EEEC2B8ue170006INS_18__default_init_tagESD_EEOT_OT0_, symObjAddr: 0x48D14, symBinAddr: 0x10004CD90, symSize: 0x124 }
  - { offsetInCU: 0x27402, offset: 0x27402, size: 0x8, addend: 0x0, symName: __ZNSt3__122__compressed_pair_elemINS_16__hash_node_baseIPNS_11__hash_nodeINS_12basic_stringIcNS_11char_traitsIcEENS_9allocatorIcEEEEPvEEEELi0ELb0EEC2B8ue170006ENS_18__default_init_tagE, symObjAddr: 0x48E38, symBinAddr: 0x10004CEB4, symSize: 0x78 }
  - { offsetInCU: 0x27436, offset: 0x27436, size: 0x8, addend: 0x0, symName: __ZNSt3__122__compressed_pair_elemINS_9allocatorINS_11__hash_nodeINS_12basic_stringIcNS_11char_traitsIcEENS1_IcEEEEPvEEEELi1ELb1EEC2B8ue170006ISA_vEEOT_, symObjAddr: 0x48EB0, symBinAddr: 0x10004CF2C, symSize: 0x58 }
  - { offsetInCU: 0x27478, offset: 0x27478, size: 0x8, addend: 0x0, symName: __ZNSt3__117__compressed_pairImNS_4hashINS_12basic_stringIcNS_11char_traitsIcEENS_9allocatorIcEEEEEEEC2B8ue170006IiRKS8_EEOT_OT0_, symObjAddr: 0x48F08, symBinAddr: 0x10004CF84, symSize: 0x170 }
  - { offsetInCU: 0x274D0, offset: 0x274D0, size: 0x8, addend: 0x0, symName: __ZNSt3__122__compressed_pair_elemINS_4hashINS_12basic_stringIcNS_11char_traitsIcEENS_9allocatorIcEEEEEELi1ELb1EEC2B8ue170006IRKS8_vEEOT_, symObjAddr: 0x49078, symBinAddr: 0x10004D0F4, symSize: 0x58 }
  - { offsetInCU: 0x27512, offset: 0x27512, size: 0x8, addend: 0x0, symName: __ZNSt3__112__hash_tableINS_12basic_stringIcNS_11char_traitsIcEENS_9allocatorIcEEEENS_4hashIS6_EENS_8equal_toIS6_EENS4_IS6_EEE8__rehashILb1EEEvm, symObjAddr: 0x490D0, symBinAddr: 0x10004D14C, symSize: 0x9CC }
  - { offsetInCU: 0x27568, offset: 0x27568, size: 0x8, addend: 0x0, symName: __ZNSt3__112__hash_tableINS_12basic_stringIcNS_11char_traitsIcEENS_9allocatorIcEEEENS_4hashIS6_EENS_8equal_toIS6_EENS4_IS6_EEE11__do_rehashILb1EEEvm, symObjAddr: 0x49A9C, symBinAddr: 0x10004DB18, symSize: 0x1084 }
  - { offsetInCU: 0x2764D, offset: 0x2764D, size: 0x8, addend: 0x0, symName: __ZNSt3__112__hash_tableINS_12basic_stringIcNS_11char_traitsIcEENS_9allocatorIcEEEENS_4hashIS6_EENS_8equal_toIS6_EENS4_IS6_EEE15__insert_uniqueB8ue170006ERKS6_, symObjAddr: 0x4AB20, symBinAddr: 0x10004EB9C, symSize: 0x34C }
  - { offsetInCU: 0x27684, offset: 0x27684, size: 0x8, addend: 0x0, symName: __ZNSt3__112__hash_tableINS_12basic_stringIcNS_11char_traitsIcEENS_9allocatorIcEEEENS_4hashIS6_EENS_8equal_toIS6_EENS4_IS6_EEE25__emplace_unique_key_argsIS6_JRKS6_EEENS_4pairINS_15__hash_iteratorIPNS_11__hash_nodeIS6_PvEEEEbEERKT_DpOT0_, symObjAddr: 0x4AE6C, symBinAddr: 0x10004EEE8, symSize: 0x1CF8 }
  - { offsetInCU: 0x2776E, offset: 0x2776E, size: 0x8, addend: 0x0, symName: __ZNSt3__122__hash_key_value_typesINS_12basic_stringIcNS_11char_traitsIcEENS_9allocatorIcEEEEE9__get_keyB8ue170006ERKS6_, symObjAddr: 0x4CB64, symBinAddr: 0x100050BE0, symSize: 0x68 }
  - { offsetInCU: 0x27791, offset: 0x27791, size: 0x8, addend: 0x0, symName: __ZNSt3__112__hash_tableINS_12basic_stringIcNS_11char_traitsIcEENS_9allocatorIcEEEENS_4hashIS6_EENS_8equal_toIS6_EENS4_IS6_EEE21__construct_node_hashIRKS6_JEEENS_10unique_ptrINS_11__hash_nodeIS6_PvEENS_22__hash_node_destructorINS4_ISJ_EEEEEEmOT_DpOT0_, symObjAddr: 0x4CBCC, symBinAddr: 0x100050C48, symSize: 0x8DC }
  - { offsetInCU: 0x2780F, offset: 0x2780F, size: 0x8, addend: 0x0, symName: __ZNSt3__14pairINS_15__hash_iteratorIPNS_11__hash_nodeINS_12basic_stringIcNS_11char_traitsIcEENS_9allocatorIcEEEEPvEEEEbEC1B8ue170006ISC_RbLS9_0EEEOT_OT0_, symObjAddr: 0x4D4A8, symBinAddr: 0x100051524, symSize: 0x88 }
  - { offsetInCU: 0x2786D, offset: 0x2786D, size: 0x8, addend: 0x0, symName: __ZNSt3__14pairINS_15__hash_iteratorIPNS_11__hash_nodeINS_12basic_stringIcNS_11char_traitsIcEENS_9allocatorIcEEEEPvEEEEbEC2B8ue170006ISC_RbLS9_0EEEOT_OT0_, symObjAddr: 0x4D530, symBinAddr: 0x1000515AC, symSize: 0x1C8 }
  - { offsetInCU: 0x278CB, offset: 0x278CB, size: 0x8, addend: 0x0, symName: __ZNSt3__16vectorI11TransactionNS_9allocatorIS1_EEEC2ERKS4_, symObjAddr: 0x4D6F8, symBinAddr: 0x100051774, symSize: 0x4C0 }
  - { offsetInCU: 0x27908, offset: 0x27908, size: 0x8, addend: 0x0, symName: __ZNSt3__116allocator_traitsINS_9allocatorI11TransactionEEE37select_on_container_copy_constructionB8ue170006IS3_vvEES3_RKS3_, symObjAddr: 0x4DBB8, symBinAddr: 0x100051C34, symSize: 0x10 }
  - { offsetInCU: 0x2793D, offset: 0x2793D, size: 0x8, addend: 0x0, symName: __ZNSt3__117__compressed_pairIP11TransactionNS_9allocatorIS1_EEEC1B8ue170006IDnS4_EEOT_OT0_, symObjAddr: 0x4DBC8, symBinAddr: 0x100051C44, symSize: 0x88 }
  - { offsetInCU: 0x27995, offset: 0x27995, size: 0x8, addend: 0x0, symName: __ZNSt3__16vectorI11TransactionNS_9allocatorIS1_EEE16__init_with_sizeB8ue170006IPS1_S6_EEvT_T0_m, symObjAddr: 0x4DC50, symBinAddr: 0x100051CCC, symSize: 0x3EC }
  - { offsetInCU: 0x27A11, offset: 0x27A11, size: 0x8, addend: 0x0, symName: __ZNSt3__117__compressed_pairIP11TransactionNS_9allocatorIS1_EEEC2B8ue170006IDnS4_EEOT_OT0_, symObjAddr: 0x4E03C, symBinAddr: 0x1000520B8, symSize: 0x170 }
  - { offsetInCU: 0x27A69, offset: 0x27A69, size: 0x8, addend: 0x0, symName: __ZNSt3__122__compressed_pair_elemINS_9allocatorI11TransactionEELi1ELb1EEC2B8ue170006IS3_vEEOT_, symObjAddr: 0x4E1AC, symBinAddr: 0x100052228, symSize: 0x58 }
  - { offsetInCU: 0x27AAB, offset: 0x27AAB, size: 0x8, addend: 0x0, symName: __ZNSt3__128__exception_guard_exceptionsINS_6vectorI11TransactionNS_9allocatorIS2_EEE16__destroy_vectorEE10__completeB8ue170006Ev, symObjAddr: 0x4E4C0, symBinAddr: 0x10005253C, symSize: 0xD8 }
  - { offsetInCU: 0x27AD1, offset: 0x27AD1, size: 0x8, addend: 0x0, symName: __ZNSt3__128__exception_guard_exceptionsINS_6vectorI11TransactionNS_9allocatorIS2_EEE16__destroy_vectorEED1B8ue170006Ev, symObjAddr: 0x4E598, symBinAddr: 0x100052614, symSize: 0x78 }
  - { offsetInCU: 0x27AFB, offset: 0x27AFB, size: 0x8, addend: 0x0, symName: __ZNSt3__128__exception_guard_exceptionsINS_6vectorI11TransactionNS_9allocatorIS2_EEE16__destroy_vectorEEC1B8ue170006ES6_, symObjAddr: 0x4E610, symBinAddr: 0x10005268C, symSize: 0x28C }
  - { offsetInCU: 0x27B38, offset: 0x27B38, size: 0x8, addend: 0x0, symName: __ZNSt3__128__exception_guard_exceptionsINS_6vectorI11TransactionNS_9allocatorIS2_EEE16__destroy_vectorEEC2B8ue170006ES6_, symObjAddr: 0x4E89C, symBinAddr: 0x100052918, symSize: 0x2BC }
  - { offsetInCU: 0x27B75, offset: 0x27B75, size: 0x8, addend: 0x0, symName: __ZNSt3__128__exception_guard_exceptionsINS_6vectorI11TransactionNS_9allocatorIS2_EEE16__destroy_vectorEED2B8ue170006Ev, symObjAddr: 0x4EB58, symBinAddr: 0x100052BD4, symSize: 0x168 }
  - { offsetInCU: 0x27B9F, offset: 0x27B9F, size: 0x8, addend: 0x0, symName: __ZN4UserD2Ev, symObjAddr: 0x4ECC0, symBinAddr: 0x100052D3C, symSize: 0xB8 }
  - { offsetInCU: 0x27BCB, offset: 0x27BCB, size: 0x8, addend: 0x0, symName: __ZN4Bank7getUserERKNSt3__112basic_stringIcNS0_11char_traitsIcEENS0_9allocatorIcEEEE, symObjAddr: 0x4ED78, symBinAddr: 0x100052DF4, symSize: 0x100 }
  - { offsetInCU: 0x27BFF, offset: 0x27BFF, size: 0x8, addend: 0x0, symName: __ZNK4User6getPinEv, symObjAddr: 0x4EE78, symBinAddr: 0x100052EF4, symSize: 0x108 }
  - { offsetInCU: 0x27C25, offset: 0x27C25, size: 0x8, addend: 0x0, symName: __ZN4User13setActiveSessERKNSt3__112basic_stringIcNS0_11char_traitsIcEENS0_9allocatorIcEEEE, symObjAddr: 0x4EF80, symBinAddr: 0x100052FFC, symSize: 0x108 }
  - { offsetInCU: 0x27C59, offset: 0x27C59, size: 0x8, addend: 0x0, symName: __ZN4User5addIPERKNSt3__112basic_stringIcNS0_11char_traitsIcEENS0_9allocatorIcEEEE, symObjAddr: 0x4F088, symBinAddr: 0x100053104, symSize: 0x2E8 }
  - { offsetInCU: 0x27C8F, offset: 0x27C8F, size: 0x8, addend: 0x0, symName: __ZNSt3__113unordered_mapINS_12basic_stringIcNS_11char_traitsIcEENS_9allocatorIcEEEE4UserNS_4hashIS6_EENS_8equal_toIS6_EENS4_INS_4pairIKS6_S7_EEEEEixERSD_, symObjAddr: 0x4F370, symBinAddr: 0x1000533EC, symSize: 0x4F8 }
  - { offsetInCU: 0x27CC8, offset: 0x27CC8, size: 0x8, addend: 0x0, symName: __ZNSt3__112__hash_tableINS_17__hash_value_typeINS_12basic_stringIcNS_11char_traitsIcEENS_9allocatorIcEEEE4UserEENS_22__unordered_map_hasherIS7_S9_NS_4hashIS7_EENS_8equal_toIS7_EELb1EEENS_21__unordered_map_equalIS7_S9_SE_SC_Lb1EEENS5_IS9_EEE25__emplace_unique_key_argsIS7_JRKNS_21piecewise_construct_tENS_5tupleIJRKS7_EEENSO_IJEEEEEENS_4pairINS_15__hash_iteratorIPNS_11__hash_nodeIS9_PvEEEEbEERKT_DpOT0_, symObjAddr: 0x4F868, symBinAddr: 0x1000538E4, symSize: 0x1D60 }
  - { offsetInCU: 0x27DDC, offset: 0x27DDC, size: 0x8, addend: 0x0, symName: __ZNSt3__112__hash_tableINS_17__hash_value_typeINS_12basic_stringIcNS_11char_traitsIcEENS_9allocatorIcEEEE4UserEENS_22__unordered_map_hasherIS7_S9_NS_4hashIS7_EENS_8equal_toIS7_EELb1EEENS_21__unordered_map_equalIS7_S9_SE_SC_Lb1EEENS5_IS9_EEE21__construct_node_hashIRKNS_21piecewise_construct_tEJNS_5tupleIJRKS7_EEENSO_IJEEEEEENS_10unique_ptrINS_11__hash_nodeIS9_PvEENS_22__hash_node_destructorINS5_ISW_EEEEEEmOT_DpOT0_, symObjAddr: 0x5180C, symBinAddr: 0x100055888, symSize: 0x948 }
  - { offsetInCU: 0x27E7F, offset: 0x27E7F, size: 0x8, addend: 0x0, symName: __ZNSt3__116allocator_traitsINS_9allocatorINS_11__hash_nodeINS_17__hash_value_typeINS_12basic_stringIcNS_11char_traitsIcEENS1_IcEEEE4UserEEPvEEEEE9constructB8ue170006INS_4pairIKS8_S9_EEJRKNS_21piecewise_construct_tENS_5tupleIJRSH_EEENSM_IJEEEEvEEvRSD_PT_DpOT0_, symObjAddr: 0x52154, symBinAddr: 0x1000561D0, symSize: 0xF4 }
  - { offsetInCU: 0x27EFE, offset: 0x27EFE, size: 0x8, addend: 0x0, symName: __ZNSt3__19allocatorINS_11__hash_nodeINS_17__hash_value_typeINS_12basic_stringIcNS_11char_traitsIcEENS0_IcEEEE4UserEEPvEEE9constructB8ue170006INS_4pairIKS7_S8_EEJRKNS_21piecewise_construct_tENS_5tupleIJRSF_EEENSK_IJEEEEEEvPT_DpOT0_, symObjAddr: 0x52248, symBinAddr: 0x1000562C4, symSize: 0x284 }
  - { offsetInCU: 0x27F7F, offset: 0x27F7F, size: 0x8, addend: 0x0, symName: __ZNSt3__14pairIKNS_12basic_stringIcNS_11char_traitsIcEENS_9allocatorIcEEEE4UserEC1B8ue170006IJRS7_EJEEENS_21piecewise_construct_tENS_5tupleIJDpT_EEENSD_IJDpT0_EEE, symObjAddr: 0x524CC, symBinAddr: 0x100056548, symSize: 0x28C }
  - { offsetInCU: 0x27FF0, offset: 0x27FF0, size: 0x8, addend: 0x0, symName: __ZNSt3__14pairIKNS_12basic_stringIcNS_11char_traitsIcEENS_9allocatorIcEEEE4UserEC1B8ue170006IJRS7_EJEJLm0EEJEEENS_21piecewise_construct_tERNS_5tupleIJDpT_EEERNSD_IJDpT0_EEENS_15__tuple_indicesIJXspT1_EEEENSM_IJXspT2_EEEE, symObjAddr: 0x52758, symBinAddr: 0x1000567D4, symSize: 0x88 }
  - { offsetInCU: 0x28080, offset: 0x28080, size: 0x8, addend: 0x0, symName: __ZNSt3__14pairIKNS_12basic_stringIcNS_11char_traitsIcEENS_9allocatorIcEEEE4UserEC2B8ue170006IJRS7_EJEJLm0EEJEEENS_21piecewise_construct_tERNS_5tupleIJDpT_EEERNSD_IJDpT0_EEENS_15__tuple_indicesIJXspT1_EEEENSM_IJXspT2_EEEE, symObjAddr: 0x527E0, symBinAddr: 0x10005685C, symSize: 0x14C }
  - { offsetInCU: 0x28110, offset: 0x28110, size: 0x8, addend: 0x0, symName: __ZNSt3__112__tuple_leafILm0ERKNS_12basic_stringIcNS_11char_traitsIcEENS_9allocatorIcEEEELb0EE3getB8ue170006Ev, symObjAddr: 0x52A0C, symBinAddr: 0x100056A88, symSize: 0xF4 }
  - { offsetInCU: 0x28136, offset: 0x28136, size: 0x8, addend: 0x0, symName: __ZNSt3__15tupleIJRKNS_12basic_stringIcNS_11char_traitsIcEENS_9allocatorIcEEEEEEC1B8ue170006INS_4_AndELi0EEES8_, symObjAddr: 0x52B00, symBinAddr: 0x100056B7C, symSize: 0x80 }
  - { offsetInCU: 0x2817E, offset: 0x2817E, size: 0x8, addend: 0x0, symName: __ZNSt3__15tupleIJRKNS_12basic_stringIcNS_11char_traitsIcEENS_9allocatorIcEEEEEEC2B8ue170006INS_4_AndELi0EEES8_, symObjAddr: 0x52B80, symBinAddr: 0x100056BFC, symSize: 0xC8 }
  - { offsetInCU: 0x281C6, offset: 0x281C6, size: 0x8, addend: 0x0, symName: __ZNSt3__112__tuple_implINS_15__tuple_indicesIJLm0EEEEJRKNS_12basic_stringIcNS_11char_traitsIcEENS_9allocatorIcEEEEEEC1B8ue170006IJLm0EEJSA_EJEJEJSA_EEENS1_IJXspT_EEEENS_13__tuple_typesIJDpT0_EEENS1_IJXspT1_EEEENSE_IJDpT2_EEEDpOT3_, symObjAddr: 0x52C48, symBinAddr: 0x100056CC4, symSize: 0x80 }
  - { offsetInCU: 0x2825B, offset: 0x2825B, size: 0x8, addend: 0x0, symName: __ZNSt3__112__tuple_implINS_15__tuple_indicesIJLm0EEEEJRKNS_12basic_stringIcNS_11char_traitsIcEENS_9allocatorIcEEEEEEC2B8ue170006IJLm0EEJSA_EJEJEJSA_EEENS1_IJXspT_EEEENS_13__tuple_typesIJDpT0_EEENS1_IJXspT1_EEEENSE_IJDpT2_EEEDpOT3_, symObjAddr: 0x52CC8, symBinAddr: 0x100056D44, symSize: 0x10C }
  - { offsetInCU: 0x282F0, offset: 0x282F0, size: 0x8, addend: 0x0, symName: __ZNSt3__112__tuple_leafILm0ERKNS_12basic_stringIcNS_11char_traitsIcEENS_9allocatorIcEEEELb0EEC2B8ue170006IS8_vEEOT_, symObjAddr: 0x52DD4, symBinAddr: 0x100056E50, symSize: 0x108 }
  - { offsetInCU: 0x28333, offset: 0x28333, size: 0x8, addend: 0x0, symName: __ZNSt3__113unordered_setINS_12basic_stringIcNS_11char_traitsIcEENS_9allocatorIcEEEENS_4hashIS6_EENS_8equal_toIS6_EENS4_IS6_EEE6insertB8ue170006ERKS6_, symObjAddr: 0x52EDC, symBinAddr: 0x100056F58, symSize: 0x380 }
  - { offsetInCU: 0x2836A, offset: 0x2836A, size: 0x8, addend: 0x0, symName: __ZNSt3__14pairINS_21__hash_const_iteratorIPNS_11__hash_nodeINS_12basic_stringIcNS_11char_traitsIcEENS_9allocatorIcEEEEPvEEEEbEC1B8ue170006INS_15__hash_iteratorISB_EEbLS9_0EEEONS0_IT_T0_EE, symObjAddr: 0x5325C, symBinAddr: 0x1000572D8, symSize: 0x80 }
  - { offsetInCU: 0x283BB, offset: 0x283BB, size: 0x8, addend: 0x0, symName: __ZNSt3__14pairINS_21__hash_const_iteratorIPNS_11__hash_nodeINS_12basic_stringIcNS_11char_traitsIcEENS_9allocatorIcEEEEPvEEEEbEC2B8ue170006INS_15__hash_iteratorISB_EEbLS9_0EEEONS0_IT_T0_EE, symObjAddr: 0x532DC, symBinAddr: 0x100057358, symSize: 0x210 }
  - { offsetInCU: 0x2840C, offset: 0x2840C, size: 0x8, addend: 0x0, symName: __ZNSt3__121__hash_const_iteratorIPNS_11__hash_nodeINS_12basic_stringIcNS_11char_traitsIcEENS_9allocatorIcEEEEPvEEEC1B8ue170006ERKNS_15__hash_iteratorISA_EE, symObjAddr: 0x534EC, symBinAddr: 0x100057568, symSize: 0x80 }
  - { offsetInCU: 0x28445, offset: 0x28445, size: 0x8, addend: 0x0, symName: __ZNSt3__121__hash_const_iteratorIPNS_11__hash_nodeINS_12basic_stringIcNS_11char_traitsIcEENS_9allocatorIcEEEEPvEEEC2B8ue170006ERKNS_15__hash_iteratorISA_EE, symObjAddr: 0x5356C, symBinAddr: 0x1000575E8, symSize: 0x12C }
  - { offsetInCU: 0x2847E, offset: 0x2847E, size: 0x8, addend: 0x0, symName: __ZNK4User7validIPERKNSt3__112basic_stringIcNS0_11char_traitsIcEENS0_9allocatorIcEEEE, symObjAddr: 0x53698, symBinAddr: 0x100057714, symSize: 0x418 }
  - { offsetInCU: 0x284B4, offset: 0x284B4, size: 0x8, addend: 0x0, symName: __ZN4User8removeIPERKNSt3__112basic_stringIcNS0_11char_traitsIcEENS0_9allocatorIcEEEE, symObjAddr: 0x53AB0, symBinAddr: 0x100057B2C, symSize: 0x164 }
  - { offsetInCU: 0x284E8, offset: 0x284E8, size: 0x8, addend: 0x0, symName: __ZNKSt3__113unordered_setINS_12basic_stringIcNS_11char_traitsIcEENS_9allocatorIcEEEENS_4hashIS6_EENS_8equal_toIS6_EENS4_IS6_EEE4findB8ue170006ERKS6_, symObjAddr: 0x53C14, symBinAddr: 0x100057C90, symSize: 0x310 }
  - { offsetInCU: 0x2851F, offset: 0x2851F, size: 0x8, addend: 0x0, symName: __ZNKSt3__112__hash_tableINS_12basic_stringIcNS_11char_traitsIcEENS_9allocatorIcEEEENS_4hashIS6_EENS_8equal_toIS6_EENS4_IS6_EEE4findIS6_EENS_21__hash_const_iteratorIPNS_11__hash_nodeIS6_PvEEEERKT_, symObjAddr: 0x53F24, symBinAddr: 0x100057FA0, symSize: 0x8F0 }
  - { offsetInCU: 0x285A7, offset: 0x285A7, size: 0x8, addend: 0x0, symName: __ZNSt3__113unordered_setINS_12basic_stringIcNS_11char_traitsIcEENS_9allocatorIcEEEENS_4hashIS6_EENS_8equal_toIS6_EENS4_IS6_EEE5eraseB8ue170006ERKS6_, symObjAddr: 0x54814, symBinAddr: 0x100058890, symSize: 0x100 }
  - { offsetInCU: 0x285DC, offset: 0x285DC, size: 0x8, addend: 0x0, symName: __ZNSt3__112__hash_tableINS_12basic_stringIcNS_11char_traitsIcEENS_9allocatorIcEEEENS_4hashIS6_EENS_8equal_toIS6_EENS4_IS6_EEE14__erase_uniqueIS6_EEmRKT_, symObjAddr: 0x54914, symBinAddr: 0x100058990, symSize: 0x460 }
  - { offsetInCU: 0x28631, offset: 0x28631, size: 0x8, addend: 0x0, symName: __ZNSt3__112__hash_tableINS_12basic_stringIcNS_11char_traitsIcEENS_9allocatorIcEEEENS_4hashIS6_EENS_8equal_toIS6_EENS4_IS6_EEE4findIS6_EENS_15__hash_iteratorIPNS_11__hash_nodeIS6_PvEEEERKT_, symObjAddr: 0x54D74, symBinAddr: 0x100058DF0, symSize: 0x8E8 }
  - { offsetInCU: 0x286B9, offset: 0x286B9, size: 0x8, addend: 0x0, symName: __ZNSt3__112__hash_tableINS_12basic_stringIcNS_11char_traitsIcEENS_9allocatorIcEEEENS_4hashIS6_EENS_8equal_toIS6_EENS4_IS6_EEE3endEv, symObjAddr: 0x55770, symBinAddr: 0x1000597EC, symSize: 0x240 }
  - { offsetInCU: 0x286E2, offset: 0x286E2, size: 0x8, addend: 0x0, symName: __ZNSt3__112__hash_tableINS_12basic_stringIcNS_11char_traitsIcEENS_9allocatorIcEEEENS_4hashIS6_EENS_8equal_toIS6_EENS4_IS6_EEE5eraseENS_21__hash_const_iteratorIPNS_11__hash_nodeIS6_PvEEEE, symObjAddr: 0x559B0, symBinAddr: 0x100059A2C, symSize: 0x3BC }
  - { offsetInCU: 0x28741, offset: 0x28741, size: 0x8, addend: 0x0, symName: __ZNSt3__115__hash_iteratorIPNS_11__hash_nodeINS_12basic_stringIcNS_11char_traitsIcEENS_9allocatorIcEEEEPvEEEppB8ue170006Ev, symObjAddr: 0x55D6C, symBinAddr: 0x100059DE8, symSize: 0x1F0 }
  - { offsetInCU: 0x28767, offset: 0x28767, size: 0x8, addend: 0x0, symName: __ZNSt3__112__hash_tableINS_12basic_stringIcNS_11char_traitsIcEENS_9allocatorIcEEEENS_4hashIS6_EENS_8equal_toIS6_EENS4_IS6_EEE6removeENS_21__hash_const_iteratorIPNS_11__hash_nodeIS6_PvEEEE, symObjAddr: 0x55F5C, symBinAddr: 0x100059FD8, symSize: 0x101C }
  - { offsetInCU: 0x28801, offset: 0x28801, size: 0x8, addend: 0x0, symName: __ZNSt3__113unordered_mapINS_12basic_stringIcNS_11char_traitsIcEENS_9allocatorIcEEEE4UserNS_4hashIS6_EENS_8equal_toIS6_EENS4_INS_4pairIKS6_S7_EEEEE4findB8ue170006ERSD_, symObjAddr: 0x57038, symBinAddr: 0x10005B0B4, symSize: 0x390 }
  - { offsetInCU: 0x28838, offset: 0x28838, size: 0x8, addend: 0x0, symName: __ZNSt3__113unordered_mapINS_12basic_stringIcNS_11char_traitsIcEENS_9allocatorIcEEEE4UserNS_4hashIS6_EENS_8equal_toIS6_EENS4_INS_4pairIKS6_S7_EEEEE3endB8ue170006Ev, symObjAddr: 0x573C8, symBinAddr: 0x10005B444, symSize: 0x340 }
  - { offsetInCU: 0x2885F, offset: 0x2885F, size: 0x8, addend: 0x0, symName: __ZNK4User12getStartTimeEv, symObjAddr: 0x57708, symBinAddr: 0x10005B784, symSize: 0xAC }
  - { offsetInCU: 0x28885, offset: 0x28885, size: 0x8, addend: 0x0, symName: __ZN4User10isLoggedInEv, symObjAddr: 0x577B4, symBinAddr: 0x10005B830, symSize: 0xF8 }
  - { offsetInCU: 0x288AB, offset: 0x288AB, size: 0x8, addend: 0x0, symName: __ZN11TransactionC1EyRKNSt3__112basic_stringIcNS0_11char_traitsIcEENS0_9allocatorIcEEEES8_yyS8_S8_m, symObjAddr: 0x578AC, symBinAddr: 0x10005B928, symSize: 0xC4 }
  - { offsetInCU: 0x28945, offset: 0x28945, size: 0x8, addend: 0x0, symName: __ZNSt3__114priority_queueI11TransactionNS_6vectorIS1_NS_9allocatorIS1_EEEE18TransactionCompareE4pushERKS1_, symObjAddr: 0x57970, symBinAddr: 0x10005B9EC, symSize: 0x468 }
  - { offsetInCU: 0x2897E, offset: 0x2897E, size: 0x8, addend: 0x0, symName: __ZNSt3__112__hash_tableINS_17__hash_value_typeINS_12basic_stringIcNS_11char_traitsIcEENS_9allocatorIcEEEE4UserEENS_22__unordered_map_hasherIS7_S9_NS_4hashIS7_EENS_8equal_toIS7_EELb1EEENS_21__unordered_map_equalIS7_S9_SE_SC_Lb1EEENS5_IS9_EEE4findIS7_EENS_15__hash_iteratorIPNS_11__hash_nodeIS9_PvEEEERKT_, symObjAddr: 0x57EEC, symBinAddr: 0x10005BF68, symSize: 0x8E8 }
  - { offsetInCU: 0x28A06, offset: 0x28A06, size: 0x8, addend: 0x0, symName: __ZNSt3__119__hash_map_iteratorINS_15__hash_iteratorIPNS_11__hash_nodeINS_17__hash_value_typeINS_12basic_stringIcNS_11char_traitsIcEENS_9allocatorIcEEEE4UserEEPvEEEEEC1B8ue170006ESF_, symObjAddr: 0x587D4, symBinAddr: 0x10005C850, symSize: 0x28C }
  - { offsetInCU: 0x28A44, offset: 0x28A44, size: 0x8, addend: 0x0, symName: __ZNSt3__112__hash_tableINS_17__hash_value_typeINS_12basic_stringIcNS_11char_traitsIcEENS_9allocatorIcEEEE4UserEENS_22__unordered_map_hasherIS7_S9_NS_4hashIS7_EENS_8equal_toIS7_EELb1EEENS_21__unordered_map_equalIS7_S9_SE_SC_Lb1EEENS5_IS9_EEE3endEv, symObjAddr: 0x58A60, symBinAddr: 0x10005CADC, symSize: 0x240 }
  - { offsetInCU: 0x28A6D, offset: 0x28A6D, size: 0x8, addend: 0x0, symName: __ZNSt3__119__hash_map_iteratorINS_15__hash_iteratorIPNS_11__hash_nodeINS_17__hash_value_typeINS_12basic_stringIcNS_11char_traitsIcEENS_9allocatorIcEEEE4UserEEPvEEEEEC2B8ue170006ESF_, symObjAddr: 0x58CA0, symBinAddr: 0x10005CD1C, symSize: 0x25C }
  - { offsetInCU: 0x28AAB, offset: 0x28AAB, size: 0x8, addend: 0x0, symName: __ZNKSt3__113unordered_setINS_12basic_stringIcNS_11char_traitsIcEENS_9allocatorIcEEEENS_4hashIS6_EENS_8equal_toIS6_EENS4_IS6_EEE4sizeB8ue170006Ev, symObjAddr: 0x58EFC, symBinAddr: 0x10005CF78, symSize: 0xB0 }
  - { offsetInCU: 0x28AD1, offset: 0x28AD1, size: 0x8, addend: 0x0, symName: __ZNKSt3__112__hash_tableINS_12basic_stringIcNS_11char_traitsIcEENS_9allocatorIcEEEENS_4hashIS6_EENS_8equal_toIS6_EENS4_IS6_EEE4sizeB8ue170006Ev, symObjAddr: 0x58FAC, symBinAddr: 0x10005D028, symSize: 0x144 }
  - { offsetInCU: 0x28AF7, offset: 0x28AF7, size: 0x8, addend: 0x0, symName: __ZNKSt3__117__compressed_pairImNS_4hashINS_12basic_stringIcNS_11char_traitsIcEENS_9allocatorIcEEEEEEE5firstB8ue170006Ev, symObjAddr: 0x590F0, symBinAddr: 0x10005D16C, symSize: 0x124 }
  - { offsetInCU: 0x28B1D, offset: 0x28B1D, size: 0x8, addend: 0x0, symName: __ZN11TransactionC2EyRKNSt3__112basic_stringIcNS0_11char_traitsIcEENS0_9allocatorIcEEEES8_yyS8_S8_m, symObjAddr: 0x59214, symBinAddr: 0x10005D290, symSize: 0x3DC }
  - { offsetInCU: 0x28BBB, offset: 0x28BBB, size: 0x8, addend: 0x0, symName: __ZNSt3__16vectorI11TransactionNS_9allocatorIS1_EEE9push_backB8ue170006ERKS1_, symObjAddr: 0x595F0, symBinAddr: 0x10005D66C, symSize: 0x1FC }
  - { offsetInCU: 0x28BF2, offset: 0x28BF2, size: 0x8, addend: 0x0, symName: __ZNSt3__16vectorI11TransactionNS_9allocatorIS1_EEE5beginB8ue170006Ev, symObjAddr: 0x59B58, symBinAddr: 0x10005DBD4, symSize: 0x2B0 }
  - { offsetInCU: 0x28C1B, offset: 0x28C1B, size: 0x8, addend: 0x0, symName: __ZNSt3__16vectorI11TransactionNS_9allocatorIS1_EEE3endB8ue170006Ev, symObjAddr: 0x59E08, symBinAddr: 0x10005DE84, symSize: 0x2B4 }
  - { offsetInCU: 0x28C44, offset: 0x28C44, size: 0x8, addend: 0x0, symName: __ZNSt3__16vectorI11TransactionNS_9allocatorIS1_EEE22__construct_one_at_endB8ue170006IJRKS1_EEEvDpOT_, symObjAddr: 0x5A0BC, symBinAddr: 0x10005E138, symSize: 0x550 }
  - { offsetInCU: 0x28C99, offset: 0x28C99, size: 0x8, addend: 0x0, symName: __ZNSt3__16vectorI11TransactionNS_9allocatorIS1_EEE21__push_back_slow_pathIRKS1_EEvOT_, symObjAddr: 0x5A60C, symBinAddr: 0x10005E688, symSize: 0x5B0 }
  - { offsetInCU: 0x28CFE, offset: 0x28CFE, size: 0x8, addend: 0x0, symName: __ZNSt3__116allocator_traitsINS_9allocatorI11TransactionEEE9constructB8ue170006IS2_JRKS2_EvEEvRS3_PT_DpOT0_, symObjAddr: 0x5ABBC, symBinAddr: 0x10005EC38, symSize: 0x8C }
  - { offsetInCU: 0x28D55, offset: 0x28D55, size: 0x8, addend: 0x0, symName: __ZNSt3__19allocatorI11TransactionE9constructB8ue170006IS1_JRKS1_EEEvPT_DpOT0_, symObjAddr: 0x5AC48, symBinAddr: 0x10005ECC4, symSize: 0xEC }
  - { offsetInCU: 0x28DAB, offset: 0x28DAB, size: 0x8, addend: 0x0, symName: __ZNSt3__114__split_bufferI11TransactionRNS_9allocatorIS1_EEEC1EmmS4_, symObjAddr: 0x5AD34, symBinAddr: 0x10005EDB0, symSize: 0x90 }
  - { offsetInCU: 0x28E01, offset: 0x28E01, size: 0x8, addend: 0x0, symName: __ZNSt3__114__split_bufferI11TransactionRNS_9allocatorIS1_EEED1Ev, symObjAddr: 0x5B620, symBinAddr: 0x10005F69C, symSize: 0x78 }
  - { offsetInCU: 0x28E2D, offset: 0x28E2D, size: 0x8, addend: 0x0, symName: __ZNSt3__114__split_bufferI11TransactionRNS_9allocatorIS1_EEEC2EmmS4_, symObjAddr: 0x5B698, symBinAddr: 0x10005F714, symSize: 0x7E8 }
  - { offsetInCU: 0x28EA8, offset: 0x28EA8, size: 0x8, addend: 0x0, symName: __ZNSt3__117__compressed_pairIP11TransactionRNS_9allocatorIS1_EEEC1B8ue170006IDnS5_EEOT_OT0_, symObjAddr: 0x5BE80, symBinAddr: 0x10005FEFC, symSize: 0x88 }
  - { offsetInCU: 0x28F00, offset: 0x28F00, size: 0x8, addend: 0x0, symName: __ZNSt3__114__split_bufferI11TransactionRNS_9allocatorIS1_EEE7__allocB8ue170006Ev, symObjAddr: 0x5BF08, symBinAddr: 0x10005FF84, symSize: 0xE4 }
  - { offsetInCU: 0x28F26, offset: 0x28F26, size: 0x8, addend: 0x0, symName: __ZNSt3__114__split_bufferI11TransactionRNS_9allocatorIS1_EEE9__end_capB8ue170006Ev, symObjAddr: 0x5BFEC, symBinAddr: 0x100060068, symSize: 0x100 }
  - { offsetInCU: 0x28F4C, offset: 0x28F4C, size: 0x8, addend: 0x0, symName: __ZNSt3__117__compressed_pairIP11TransactionRNS_9allocatorIS1_EEEC2B8ue170006IDnS5_EEOT_OT0_, symObjAddr: 0x5C0EC, symBinAddr: 0x100060168, symSize: 0x198 }
  - { offsetInCU: 0x28FA4, offset: 0x28FA4, size: 0x8, addend: 0x0, symName: __ZNSt3__122__compressed_pair_elemIRNS_9allocatorI11TransactionEELi1ELb0EEC2B8ue170006IS4_vEEOT_, symObjAddr: 0x5C284, symBinAddr: 0x100060300, symSize: 0xEC }
  - { offsetInCU: 0x28FE6, offset: 0x28FE6, size: 0x8, addend: 0x0, symName: __ZNSt3__117__compressed_pairIP11TransactionRNS_9allocatorIS1_EEE6secondB8ue170006Ev, symObjAddr: 0x5C370, symBinAddr: 0x1000603EC, symSize: 0x110 }
  - { offsetInCU: 0x2900C, offset: 0x2900C, size: 0x8, addend: 0x0, symName: __ZNSt3__122__compressed_pair_elemIRNS_9allocatorI11TransactionEELi1ELb0EE5__getB8ue170006Ev, symObjAddr: 0x5C480, symBinAddr: 0x1000604FC, symSize: 0xD8 }
  - { offsetInCU: 0x29032, offset: 0x29032, size: 0x8, addend: 0x0, symName: __ZNSt3__117__compressed_pairIP11TransactionRNS_9allocatorIS1_EEE5firstB8ue170006Ev, symObjAddr: 0x5C558, symBinAddr: 0x1000605D4, symSize: 0x124 }
  - { offsetInCU: 0x29058, offset: 0x29058, size: 0x8, addend: 0x0, symName: __ZNSt3__129_AllocatorDestroyRangeReverseINS_9allocatorI11TransactionEENS_16reverse_iteratorIPS2_EEEC1B8ue170006ERS3_RS6_S9_, symObjAddr: 0x5D040, symBinAddr: 0x1000610BC, symSize: 0x90 }
  - { offsetInCU: 0x290B5, offset: 0x290B5, size: 0x8, addend: 0x0, symName: __ZNSt3__116allocator_traitsINS_9allocatorI11TransactionEEE9constructB8ue170006IS2_JS2_EvEEvRS3_PT_DpOT0_, symObjAddr: 0x5D0D0, symBinAddr: 0x10006114C, symSize: 0x8C }
  - { offsetInCU: 0x2910C, offset: 0x2910C, size: 0x8, addend: 0x0, symName: __ZNSt3__128__exception_guard_exceptionsINS_29_AllocatorDestroyRangeReverseINS_9allocatorI11TransactionEENS_16reverse_iteratorIPS3_EEEEE10__completeB8ue170006Ev, symObjAddr: 0x5D15C, symBinAddr: 0x1000611D8, symSize: 0xD8 }
  - { offsetInCU: 0x29132, offset: 0x29132, size: 0x8, addend: 0x0, symName: __ZNSt3__128__exception_guard_exceptionsINS_29_AllocatorDestroyRangeReverseINS_9allocatorI11TransactionEENS_16reverse_iteratorIPS3_EEEEED1B8ue170006Ev, symObjAddr: 0x5D234, symBinAddr: 0x1000612B0, symSize: 0x78 }
  - { offsetInCU: 0x2915C, offset: 0x2915C, size: 0x8, addend: 0x0, symName: __ZNSt3__128__exception_guard_exceptionsINS_29_AllocatorDestroyRangeReverseINS_9allocatorI11TransactionEENS_16reverse_iteratorIPS3_EEEEEC1B8ue170006ES8_, symObjAddr: 0x5D2AC, symBinAddr: 0x100061328, symSize: 0x84 }
  - { offsetInCU: 0x29195, offset: 0x29195, size: 0x8, addend: 0x0, symName: __ZNSt3__128__exception_guard_exceptionsINS_29_AllocatorDestroyRangeReverseINS_9allocatorI11TransactionEENS_16reverse_iteratorIPS3_EEEEEC2B8ue170006ES8_, symObjAddr: 0x5D330, symBinAddr: 0x1000613AC, symSize: 0xF8 }
  - { offsetInCU: 0x291CE, offset: 0x291CE, size: 0x8, addend: 0x0, symName: __ZNSt3__129_AllocatorDestroyRangeReverseINS_9allocatorI11TransactionEENS_16reverse_iteratorIPS2_EEEC2B8ue170006ERS3_RS6_S9_, symObjAddr: 0x5D428, symBinAddr: 0x1000614A4, symSize: 0x20C }
  - { offsetInCU: 0x29225, offset: 0x29225, size: 0x8, addend: 0x0, symName: __ZNSt3__19allocatorI11TransactionE9constructB8ue170006IS1_JS1_EEEvPT_DpOT0_, symObjAddr: 0x5D634, symBinAddr: 0x1000616B0, symSize: 0xEC }
  - { offsetInCU: 0x2927B, offset: 0x2927B, size: 0x8, addend: 0x0, symName: __ZN11TransactionC1EOS_, symObjAddr: 0x5D720, symBinAddr: 0x10006179C, symSize: 0x80 }
  - { offsetInCU: 0x292B0, offset: 0x292B0, size: 0x8, addend: 0x0, symName: __ZN11TransactionC2EOS_, symObjAddr: 0x5D7A0, symBinAddr: 0x10006181C, symSize: 0x46C }
  - { offsetInCU: 0x292E5, offset: 0x292E5, size: 0x8, addend: 0x0, symName: __ZNSt3__128__exception_guard_exceptionsINS_29_AllocatorDestroyRangeReverseINS_9allocatorI11TransactionEENS_16reverse_iteratorIPS3_EEEEED2B8ue170006Ev, symObjAddr: 0x5DC0C, symBinAddr: 0x100061C88, symSize: 0x17C }
  - { offsetInCU: 0x2930F, offset: 0x2930F, size: 0x8, addend: 0x0, symName: __ZNKSt3__129_AllocatorDestroyRangeReverseINS_9allocatorI11TransactionEENS_16reverse_iteratorIPS2_EEEclB8ue170006Ev, symObjAddr: 0x5DD88, symBinAddr: 0x100061E04, symSize: 0x418 }
  - { offsetInCU: 0x29336, offset: 0x29336, size: 0x8, addend: 0x0, symName: __ZNSt3__116reverse_iteratorINS0_IP11TransactionEEEC1B8ue170006ES3_, symObjAddr: 0x5E344, symBinAddr: 0x1000623C0, symSize: 0x29C }
  - { offsetInCU: 0x29373, offset: 0x29373, size: 0x8, addend: 0x0, symName: __ZNSt3__116reverse_iteratorINS0_IP11TransactionEEEppB8ue170006Ev, symObjAddr: 0x5E970, symBinAddr: 0x1000629EC, symSize: 0x100 }
  - { offsetInCU: 0x29399, offset: 0x29399, size: 0x8, addend: 0x0, symName: __ZNKSt3__116reverse_iteratorINS0_IP11TransactionEEE4baseB8ue170006Ev, symObjAddr: 0x5EA70, symBinAddr: 0x100062AEC, symSize: 0x258 }
  - { offsetInCU: 0x293C6, offset: 0x293C6, size: 0x8, addend: 0x0, symName: __ZNSt3__119__to_address_helperINS_16reverse_iteratorINS1_IP11TransactionEEEEvE6__callB8ue170006ERKS5_, symObjAddr: 0x5ECC8, symBinAddr: 0x100062D44, symSize: 0x70 }
  - { offsetInCU: 0x293E9, offset: 0x293E9, size: 0x8, addend: 0x0, symName: __ZNKSt3__116reverse_iteratorINS0_IP11TransactionEEEptB8ue170006Ev, symObjAddr: 0x5ED38, symBinAddr: 0x100062DB4, symSize: 0x6C }
  - { offsetInCU: 0x2940F, offset: 0x2940F, size: 0x8, addend: 0x0, symName: __ZNKSt3__116reverse_iteratorINS0_IP11TransactionEEEdeB8ue170006Ev, symObjAddr: 0x5EDA4, symBinAddr: 0x100062E20, symSize: 0x2C4 }
  - { offsetInCU: 0x29448, offset: 0x29448, size: 0x8, addend: 0x0, symName: __ZNSt3__116reverse_iteratorIP11TransactionEmmB8ue170006Ev, symObjAddr: 0x5F068, symBinAddr: 0x1000630E4, symSize: 0x1B0 }
  - { offsetInCU: 0x2946E, offset: 0x2946E, size: 0x8, addend: 0x0, symName: __ZNSt3__116reverse_iteratorINS0_IP11TransactionEEEC2B8ue170006ES3_, symObjAddr: 0x5F218, symBinAddr: 0x100063294, symSize: 0x284 }
  - { offsetInCU: 0x294AB, offset: 0x294AB, size: 0x8, addend: 0x0, symName: __ZNSt3__114__split_bufferI11TransactionRNS_9allocatorIS1_EEED2Ev, symObjAddr: 0x5F49C, symBinAddr: 0x100063518, symSize: 0x16C }
  - { offsetInCU: 0x294D7, offset: 0x294D7, size: 0x8, addend: 0x0, symName: __ZNSt3__114__split_bufferI11TransactionRNS_9allocatorIS1_EEE5clearB8ue170006Ev, symObjAddr: 0x5F608, symBinAddr: 0x100063684, symSize: 0xB4 }
  - { offsetInCU: 0x294FD, offset: 0x294FD, size: 0x8, addend: 0x0, symName: __ZNKSt3__114__split_bufferI11TransactionRNS_9allocatorIS1_EEE8capacityB8ue170006Ev, symObjAddr: 0x5F6BC, symBinAddr: 0x100063738, symSize: 0x144 }
  - { offsetInCU: 0x29523, offset: 0x29523, size: 0x8, addend: 0x0, symName: __ZNSt3__114__split_bufferI11TransactionRNS_9allocatorIS1_EEE17__destruct_at_endB8ue170006EPS1_, symObjAddr: 0x5F800, symBinAddr: 0x10006387C, symSize: 0x74 }
  - { offsetInCU: 0x29557, offset: 0x29557, size: 0x8, addend: 0x0, symName: __ZNSt3__114__split_bufferI11TransactionRNS_9allocatorIS1_EEE17__destruct_at_endB8ue170006EPS1_NS_17integral_constantIbLb0EEE, symObjAddr: 0x5F874, symBinAddr: 0x1000638F0, symSize: 0x224 }
  - { offsetInCU: 0x29597, offset: 0x29597, size: 0x8, addend: 0x0, symName: __ZNKSt3__114__split_bufferI11TransactionRNS_9allocatorIS1_EEE9__end_capB8ue170006Ev, symObjAddr: 0x5FA98, symBinAddr: 0x100063B14, symSize: 0x100 }
  - { offsetInCU: 0x295BD, offset: 0x295BD, size: 0x8, addend: 0x0, symName: __ZNKSt3__117__compressed_pairIP11TransactionRNS_9allocatorIS1_EEE5firstB8ue170006Ev, symObjAddr: 0x5FB98, symBinAddr: 0x100063C14, symSize: 0x124 }
  - { offsetInCU: 0x295E3, offset: 0x295E3, size: 0x8, addend: 0x0, symName: __ZNKSt3__111__wrap_iterIP11TransactionE4baseB8ue170006Ev, symObjAddr: 0x60A80, symBinAddr: 0x100064AFC, symSize: 0xAC }
  - { offsetInCU: 0x29609, offset: 0x29609, size: 0x8, addend: 0x0, symName: __ZNKSt3__111__wrap_iterIP11TransactionEplB8ue170006El, symObjAddr: 0x60B2C, symBinAddr: 0x100064BA8, symSize: 0x258 }
  - { offsetInCU: 0x29651, offset: 0x29651, size: 0x8, addend: 0x0, symName: __ZN18TransactionCompareclERK11TransactionS2_, symObjAddr: 0x60D84, symBinAddr: 0x100064E00, symSize: 0x22C }
  - { offsetInCU: 0x29693, offset: 0x29693, size: 0x8, addend: 0x0, symName: __ZNKSt3__111__wrap_iterIP11TransactionEdeB8ue170006Ev, symObjAddr: 0x60FB0, symBinAddr: 0x10006502C, symSize: 0xF4 }
  - { offsetInCU: 0x296B9, offset: 0x296B9, size: 0x8, addend: 0x0, symName: __ZNSt3__111__wrap_iterIP11TransactionEmmB8ue170006Ev, symObjAddr: 0x610A4, symBinAddr: 0x100065120, symSize: 0x1A8 }
  - { offsetInCU: 0x296DF, offset: 0x296DF, size: 0x8, addend: 0x0, symName: __ZNSt3__18_IterOpsINS_17_ClassicAlgPolicyEE11__iter_moveB8ue170006IRNS_11__wrap_iterIP11TransactionEEEENS_9enable_ifIXsr12is_referenceIDTdeclsr3stdE7declvalIRT_EEEEE5valueEDTclsr3stdE4movedeclsr3stdE7declvalISB_EEEEE4typeEOSA_, symObjAddr: 0x6124C, symBinAddr: 0x1000652C8, symSize: 0xB8 }
  - { offsetInCU: 0x2970B, offset: 0x2970B, size: 0x8, addend: 0x0, symName: __ZN11TransactionaSEOS_, symObjAddr: 0x61304, symBinAddr: 0x100065380, symSize: 0x5A8 }
  - { offsetInCU: 0x2973C, offset: 0x2973C, size: 0x8, addend: 0x0, symName: __ZNSt3__111__wrap_iterIP11TransactionEpLB8ue170006El, symObjAddr: 0x618AC, symBinAddr: 0x100065928, symSize: 0x230 }
  - { offsetInCU: 0x29770, offset: 0x29770, size: 0x8, addend: 0x0, symName: __ZNK11Transaction11getExecTimeEv, symObjAddr: 0x61ADC, symBinAddr: 0x100065B58, symSize: 0xB0 }
  - { offsetInCU: 0x29796, offset: 0x29796, size: 0x8, addend: 0x0, symName: __ZNK11Transaction10getTransIDEv, symObjAddr: 0x61B8C, symBinAddr: 0x100065C08, symSize: 0xB0 }
  - { offsetInCU: 0x297BC, offset: 0x297BC, size: 0x8, addend: 0x0, symName: __ZNSt3__18_IterOpsINS_17_ClassicAlgPolicyEE25__validate_iter_referenceB8ue170006IRNS_11__wrap_iterIP11TransactionEEEEvv, symObjAddr: 0x61C3C, symBinAddr: 0x100065CB8, symSize: 0x4 }
  - { offsetInCU: 0x297DA, offset: 0x297DA, size: 0x8, addend: 0x0, symName: __ZNSt3__16vectorI11TransactionNS_9allocatorIS1_EEE11__make_iterB8ue170006EPS1_, symObjAddr: 0x61C40, symBinAddr: 0x100065CBC, symSize: 0x244 }
  - { offsetInCU: 0x29811, offset: 0x29811, size: 0x8, addend: 0x0, symName: __ZNSt3__111__wrap_iterIP11TransactionEC1B8ue170006ES2_, symObjAddr: 0x61E84, symBinAddr: 0x100065F00, symSize: 0x80 }
  - { offsetInCU: 0x29849, offset: 0x29849, size: 0x8, addend: 0x0, symName: __ZNSt3__111__wrap_iterIP11TransactionEC2B8ue170006ES2_, symObjAddr: 0x61F04, symBinAddr: 0x100065F80, symSize: 0xC8 }
  - { offsetInCU: 0x29881, offset: 0x29881, size: 0x8, addend: 0x0, symName: __ZNKSt3__114priority_queueI11TransactionNS_6vectorIS1_NS_9allocatorIS1_EEEE18TransactionCompareE4sizeB8ue170006Ev, symObjAddr: 0x61FCC, symBinAddr: 0x100066048, symSize: 0xB0 }
  - { offsetInCU: 0x298A7, offset: 0x298A7, size: 0x8, addend: 0x0, symName: __ZNKSt3__114priority_queueI11TransactionNS_6vectorIS1_NS_9allocatorIS1_EEEE18TransactionCompareE5emptyB8ue170006Ev, symObjAddr: 0x6207C, symBinAddr: 0x1000660F8, symSize: 0xB4 }
  - { offsetInCU: 0x298CD, offset: 0x298CD, size: 0x8, addend: 0x0, symName: __ZNKSt3__114priority_queueI11TransactionNS_6vectorIS1_NS_9allocatorIS1_EEEE18TransactionCompareE3topB8ue170006Ev, symObjAddr: 0x62130, symBinAddr: 0x1000661AC, symSize: 0xF8 }
  - { offsetInCU: 0x298F3, offset: 0x298F3, size: 0x8, addend: 0x0, symName: __ZNK11Transaction9getAmountEv, symObjAddr: 0x62228, symBinAddr: 0x1000662A4, symSize: 0xB0 }
  - { offsetInCU: 0x29919, offset: 0x29919, size: 0x8, addend: 0x0, symName: __ZN11Transaction9getSenderEv, symObjAddr: 0x622D8, symBinAddr: 0x100066354, symSize: 0x108 }
  - { offsetInCU: 0x2993F, offset: 0x2993F, size: 0x8, addend: 0x0, symName: __ZN11Transaction12getRecepientEv, symObjAddr: 0x623E0, symBinAddr: 0x10006645C, symSize: 0x108 }
  - { offsetInCU: 0x29965, offset: 0x29965, size: 0x8, addend: 0x0, symName: __ZNK11Transaction11getFeePayerEv, symObjAddr: 0x62608, symBinAddr: 0x100066684, symSize: 0x108 }
  - { offsetInCU: 0x2998B, offset: 0x2998B, size: 0x8, addend: 0x0, symName: __ZNK4User10getBalanceEv, symObjAddr: 0x62710, symBinAddr: 0x10006678C, symSize: 0xB0 }
  - { offsetInCU: 0x299B1, offset: 0x299B1, size: 0x8, addend: 0x0, symName: __ZNSt3__114priority_queueI11TransactionNS_6vectorIS1_NS_9allocatorIS1_EEEE18TransactionCompareE3popEv, symObjAddr: 0x627C0, symBinAddr: 0x10006683C, symSize: 0x418 }
  - { offsetInCU: 0x299DA, offset: 0x299DA, size: 0x8, addend: 0x0, symName: __ZN4User11removeMoneyEy, symObjAddr: 0x62BD8, symBinAddr: 0x100066C54, symSize: 0xFC }
  - { offsetInCU: 0x29A0E, offset: 0x29A0E, size: 0x8, addend: 0x0, symName: __ZN4User8addMoneyEy, symObjAddr: 0x62CD4, symBinAddr: 0x100066D50, symSize: 0xFC }
  - { offsetInCU: 0x29A42, offset: 0x29A42, size: 0x8, addend: 0x0, symName: __ZN11Transaction6setFeeEy, symObjAddr: 0x62DD0, symBinAddr: 0x100066E4C, symSize: 0xC0 }
  - { offsetInCU: 0x29A76, offset: 0x29A76, size: 0x8, addend: 0x0, symName: __ZN4User11addOutgoingE11Transaction, symObjAddr: 0x62E90, symBinAddr: 0x100066F0C, symSize: 0x108 }
  - { offsetInCU: 0x29AAB, offset: 0x29AAB, size: 0x8, addend: 0x0, symName: __ZN4User11addIncomingE11Transaction, symObjAddr: 0x62F98, symBinAddr: 0x100067014, symSize: 0x108 }
  - { offsetInCU: 0x29AE0, offset: 0x29AE0, size: 0x8, addend: 0x0, symName: __ZNKSt3__16vectorI11TransactionNS_9allocatorIS1_EEE5emptyB8ue170006Ev, symObjAddr: 0x630A0, symBinAddr: 0x10006711C, symSize: 0xF8 }
  - { offsetInCU: 0x29B06, offset: 0x29B06, size: 0x8, addend: 0x0, symName: __ZNKSt3__16vectorI11TransactionNS_9allocatorIS1_EEE5frontB8ue170006Ev, symObjAddr: 0x63198, symBinAddr: 0x100067214, symSize: 0xF4 }
  - { offsetInCU: 0x29B2C, offset: 0x29B2C, size: 0x8, addend: 0x0, symName: __ZNSt3__111char_traitsIcE6lengthB8ue170006EPKc, symObjAddr: 0x6328C, symBinAddr: 0x100067308, symSize: 0x40 }
  - { offsetInCU: 0x29B4F, offset: 0x29B4F, size: 0x8, addend: 0x0, symName: __ZNSt3__16vectorI11TransactionNS_9allocatorIS1_EEE8pop_backEv, symObjAddr: 0x63678, symBinAddr: 0x1000676F4, symSize: 0x150 }
  - { offsetInCU: 0x29B77, offset: 0x29B77, size: 0x8, addend: 0x0, symName: __ZNSt3__111__wrap_iterIP11TransactionEppB8ue170006Ev, symObjAddr: 0x64818, symBinAddr: 0x100068894, symSize: 0x1A8 }
  - { offsetInCU: 0x29B9D, offset: 0x29B9D, size: 0x8, addend: 0x0, symName: __ZNSt3__16vectorI11TransactionNS_9allocatorIS1_EEEixB8ue170006Em, symObjAddr: 0x649C0, symBinAddr: 0x100068A3C, symSize: 0x1D4 }
  - { offsetInCU: 0x29BD4, offset: 0x29BD4, size: 0x8, addend: 0x0, symName: __ZNSt3__112basic_stringIcNS_11char_traitsIcEENS_9allocatorIcEEEpLB8ue170006Ec, symObjAddr: 0x64B94, symBinAddr: 0x100068C10, symSize: 0xBC }
  - { offsetInCU: 0x29C2C, offset: 0x29C2C, size: 0x8, addend: 0x0, symName: __ZNKSt3__113basic_ostreamIcNS_11char_traitsIcEEE6sentrycvbB8ue170006Ev, symObjAddr: 0x65F38, symBinAddr: 0x100069FB4, symSize: 0x104 }
  - { offsetInCU: 0x29C52, offset: 0x29C52, size: 0x8, addend: 0x0, symName: __ZNSt3__119ostreambuf_iteratorIcNS_11char_traitsIcEEEC1B8ue170006ERNS_13basic_ostreamIcS2_EE, symObjAddr: 0x66BC4, symBinAddr: 0x10006AC40, symSize: 0x80 }
  - { offsetInCU: 0x29C8A, offset: 0x29C8A, size: 0x8, addend: 0x0, symName: __ZNKSt3__18ios_base5flagsB8ue170006Ev, symObjAddr: 0x66C44, symBinAddr: 0x10006ACC0, symSize: 0x160 }
  - { offsetInCU: 0x29CB2, offset: 0x29CB2, size: 0x8, addend: 0x0, symName: __ZNKSt3__19basic_iosIcNS_11char_traitsIcEEE4fillB8ue170006Ev, symObjAddr: 0x66DA4, symBinAddr: 0x10006AE20, symSize: 0x39C }
  - { offsetInCU: 0x29CDA, offset: 0x29CDA, size: 0x8, addend: 0x0, symName: __ZNKSt3__119ostreambuf_iteratorIcNS_11char_traitsIcEEE6failedB8ue170006Ev, symObjAddr: 0x67140, symBinAddr: 0x10006B1BC, symSize: 0xB8 }
  - { offsetInCU: 0x29D00, offset: 0x29D00, size: 0x8, addend: 0x0, symName: __ZNSt3__19basic_iosIcNS_11char_traitsIcEEE8setstateB8ue170006Ej, symObjAddr: 0x671F8, symBinAddr: 0x10006B274, symSize: 0x128 }
  - { offsetInCU: 0x29D35, offset: 0x29D35, size: 0x8, addend: 0x0, symName: __ZNKSt3__18ios_base5widthB8ue170006Ev, symObjAddr: 0x67320, symBinAddr: 0x10006B39C, symSize: 0x138 }
  - { offsetInCU: 0x29D5D, offset: 0x29D5D, size: 0x8, addend: 0x0, symName: __ZNSt3__115basic_streambufIcNS_11char_traitsIcEEE5sputnB8ue170006EPKcl, symObjAddr: 0x67458, symBinAddr: 0x10006B4D4, symSize: 0x198 }
  - { offsetInCU: 0x29D9F, offset: 0x29D9F, size: 0x8, addend: 0x0, symName: __ZNSt3__112basic_stringIcNS_11char_traitsIcEENS_9allocatorIcEEEC1B8ue170006Emc, symObjAddr: 0x675F0, symBinAddr: 0x10006B66C, symSize: 0x88 }
  - { offsetInCU: 0x29DE7, offset: 0x29DE7, size: 0x8, addend: 0x0, symName: __ZNSt3__112basic_stringIcNS_11char_traitsIcEENS_9allocatorIcEEE4dataB8ue170006Ev, symObjAddr: 0x67678, symBinAddr: 0x10006B6F4, symSize: 0x70 }
  - { offsetInCU: 0x29E0D, offset: 0x29E0D, size: 0x8, addend: 0x0, symName: __ZNSt3__18ios_base5widthB8ue170006El, symObjAddr: 0x676E8, symBinAddr: 0x10006B764, symSize: 0x1F8 }
  - { offsetInCU: 0x29E53, offset: 0x29E53, size: 0x8, addend: 0x0, symName: __ZNSt3__112basic_stringIcNS_11char_traitsIcEENS_9allocatorIcEEEC2B8ue170006Emc, symObjAddr: 0x678E0, symBinAddr: 0x10006B95C, symSize: 0x26C }
  - { offsetInCU: 0x29E9E, offset: 0x29E9E, size: 0x8, addend: 0x0, symName: __ZNSt3__117__compressed_pairINS_12basic_stringIcNS_11char_traitsIcEENS_9allocatorIcEEE5__repES5_EC1B8ue170006INS_18__default_init_tagESA_EEOT_OT0_, symObjAddr: 0x67B4C, symBinAddr: 0x10006BBC8, symSize: 0x88 }
  - { offsetInCU: 0x29EF6, offset: 0x29EF6, size: 0x8, addend: 0x0, symName: __ZNSt3__117__compressed_pairINS_12basic_stringIcNS_11char_traitsIcEENS_9allocatorIcEEE5__repES5_EC2B8ue170006INS_18__default_init_tagESA_EEOT_OT0_, symObjAddr: 0x67BD4, symBinAddr: 0x10006BC50, symSize: 0xF4 }
  - { offsetInCU: 0x29F4E, offset: 0x29F4E, size: 0x8, addend: 0x0, symName: __ZNSt3__122__compressed_pair_elemINS_12basic_stringIcNS_11char_traitsIcEENS_9allocatorIcEEE5__repELi0ELb0EEC2B8ue170006ENS_18__default_init_tagE, symObjAddr: 0x67CC8, symBinAddr: 0x10006BD44, symSize: 0x6C }
  - { offsetInCU: 0x29F82, offset: 0x29F82, size: 0x8, addend: 0x0, symName: __ZNSt3__122__compressed_pair_elemINS_9allocatorIcEELi1ELb1EEC2B8ue170006ENS_18__default_init_tagE, symObjAddr: 0x67D34, symBinAddr: 0x10006BDB0, symSize: 0x84 }
  - { offsetInCU: 0x29FB6, offset: 0x29FB6, size: 0x8, addend: 0x0, symName: __ZNSt3__19allocatorIcEC2B8ue170006Ev, symObjAddr: 0x67DB8, symBinAddr: 0x10006BE34, symSize: 0x84 }
  - { offsetInCU: 0x29FE0, offset: 0x29FE0, size: 0x8, addend: 0x0, symName: __ZNSt3__116__non_trivial_ifILb1ENS_9allocatorIcEEEC2B8ue170006Ev, symObjAddr: 0x67E3C, symBinAddr: 0x10006BEB8, symSize: 0x54 }
  - { offsetInCU: 0x2A00A, offset: 0x2A00A, size: 0x8, addend: 0x0, symName: __ZNSt3__112basic_stringIcNS_11char_traitsIcEENS_9allocatorIcEEE13__get_pointerB8ue170006Ev, symObjAddr: 0x67EA4, symBinAddr: 0x10006BF20, symSize: 0x98 }
  - { offsetInCU: 0x2A030, offset: 0x2A030, size: 0x8, addend: 0x0, symName: __ZNSt3__112basic_stringIcNS_11char_traitsIcEENS_9allocatorIcEEE18__get_long_pointerB8ue170006Ev, symObjAddr: 0x67F3C, symBinAddr: 0x10006BFB8, symSize: 0x208 }
  - { offsetInCU: 0x2A056, offset: 0x2A056, size: 0x8, addend: 0x0, symName: __ZNSt3__112basic_stringIcNS_11char_traitsIcEENS_9allocatorIcEEE19__get_short_pointerB8ue170006Ev, symObjAddr: 0x68144, symBinAddr: 0x10006C1C0, symSize: 0x1CC }
  - { offsetInCU: 0x2A07C, offset: 0x2A07C, size: 0x8, addend: 0x0, symName: __ZNSt3__114pointer_traitsIPcE10pointer_toB8ue170006ERc, symObjAddr: 0x68310, symBinAddr: 0x10006C38C, symSize: 0x14 }
  - { offsetInCU: 0x2A09F, offset: 0x2A09F, size: 0x8, addend: 0x0, symName: __ZNSt3__119ostreambuf_iteratorIcNS_11char_traitsIcEEEC2B8ue170006ERNS_13basic_ostreamIcS2_EE, symObjAddr: 0x68324, symBinAddr: 0x10006C3A0, symSize: 0x2E8 }
  - { offsetInCU: 0x2A0D7, offset: 0x2A0D7, size: 0x8, addend: 0x0, symName: __ZNKSt3__19basic_iosIcNS_11char_traitsIcEEE5rdbufB8ue170006Ev, symObjAddr: 0x6860C, symBinAddr: 0x10006C688, symSize: 0x120 }
  - { offsetInCU: 0x2A0FF, offset: 0x2A0FF, size: 0x8, addend: 0x0, symName: __ZNKSt3__18ios_base5rdbufB8ue170006Ev, symObjAddr: 0x6872C, symBinAddr: 0x10006C7A8, symSize: 0x138 }
  - { offsetInCU: 0x2A125, offset: 0x2A125, size: 0x8, addend: 0x0, symName: __ZNSt3__111char_traitsIcE11eq_int_typeB8ue170006Eii, symObjAddr: 0x68864, symBinAddr: 0x10006C8E0, symSize: 0x28 }
  - { offsetInCU: 0x2A158, offset: 0x2A158, size: 0x8, addend: 0x0, symName: __ZNSt3__111char_traitsIcE3eofB8ue170006Ev, symObjAddr: 0x6888C, symBinAddr: 0x10006C908, symSize: 0x8 }
  - { offsetInCU: 0x2A16C, offset: 0x2A16C, size: 0x8, addend: 0x0, symName: __ZNKSt3__19basic_iosIcNS_11char_traitsIcEEE5widenB8ue170006Ec, symObjAddr: 0x68894, symBinAddr: 0x10006C910, symSize: 0x47C }
  - { offsetInCU: 0x2A1D8, offset: 0x2A1D8, size: 0x8, addend: 0x0, symName: __ZNKSt3__15ctypeIcE5widenB8ue170006Ec, symObjAddr: 0x68E98, symBinAddr: 0x10006CF14, symSize: 0x18C }
  - { offsetInCU: 0x2A20D, offset: 0x2A20D, size: 0x8, addend: 0x0, symName: __ZNSt3__18ios_base8setstateB8ue170006Ej, symObjAddr: 0x69024, symBinAddr: 0x10006D0A0, symSize: 0x1E0 }
  - { offsetInCU: 0x2A244, offset: 0x2A244, size: 0x8, addend: 0x0, symName: __ZN4Bank11calcRevenueEyyb, symObjAddr: 0x69204, symBinAddr: 0x10006D280, symSize: 0x2EC }
  - { offsetInCU: 0x2A2EF, offset: 0x2A2EF, size: 0x8, addend: 0x0, symName: __ZNSt3__16vectorINS_12basic_stringIcNS_11char_traitsIcEENS_9allocatorIcEEEENS4_IS6_EEEC1B8ue170006ESt16initializer_listIS6_E, symObjAddr: 0x694F0, symBinAddr: 0x10006D56C, symSize: 0x29C }
  - { offsetInCU: 0x2A32F, offset: 0x2A32F, size: 0x8, addend: 0x0, symName: __ZNSt3__16vectorINS_12basic_stringIcNS_11char_traitsIcEENS_9allocatorIcEEEENS4_IS6_EEEixB8ue170006Em, symObjAddr: 0x699BC, symBinAddr: 0x10006DA38, symSize: 0x1D4 }
  - { offsetInCU: 0x2A366, offset: 0x2A366, size: 0x8, addend: 0x0, symName: __ZNSt3__112basic_stringIcNS_11char_traitsIcEENS_9allocatorIcEEE8pop_backB8ue170006Ev, symObjAddr: 0x69B90, symBinAddr: 0x10006DC0C, symSize: 0x7C }
  - { offsetInCU: 0x2A38E, offset: 0x2A38E, size: 0x8, addend: 0x0, symName: __ZNSt3__16vectorINS_12basic_stringIcNS_11char_traitsIcEENS_9allocatorIcEEEENS4_IS6_EEED1B8ue170006Ev, symObjAddr: 0x69C0C, symBinAddr: 0x10006DC88, symSize: 0x78 }
  - { offsetInCU: 0x2A3B8, offset: 0x2A3B8, size: 0x8, addend: 0x0, symName: __ZNK11Transaction16getPlacementTimeEv, symObjAddr: 0x69C84, symBinAddr: 0x10006DD00, symSize: 0xAC }
  - { offsetInCU: 0x2A3DE, offset: 0x2A3DE, size: 0x8, addend: 0x0, symName: __ZNK11Transaction6getFeeEv, symObjAddr: 0x69D30, symBinAddr: 0x10006DDAC, symSize: 0xB0 }
  - { offsetInCU: 0x2A404, offset: 0x2A404, size: 0x8, addend: 0x0, symName: __ZNSt3__16vectorINS_12basic_stringIcNS_11char_traitsIcEENS_9allocatorIcEEEENS4_IS6_EEEC2B8ue170006ESt16initializer_listIS6_E, symObjAddr: 0x69DE0, symBinAddr: 0x10006DE5C, symSize: 0x5B0 }
  - { offsetInCU: 0x2A45D, offset: 0x2A45D, size: 0x8, addend: 0x0, symName: __ZNSt3__117__compressed_pairIPNS_12basic_stringIcNS_11char_traitsIcEENS_9allocatorIcEEEENS4_IS6_EEEC1B8ue170006IDnNS_18__default_init_tagEEEOT_OT0_, symObjAddr: 0x6A390, symBinAddr: 0x10006E40C, symSize: 0x88 }
  - { offsetInCU: 0x2A4B5, offset: 0x2A4B5, size: 0x8, addend: 0x0, symName: __ZNSt3__16vectorINS_12basic_stringIcNS_11char_traitsIcEENS_9allocatorIcEEEENS4_IS6_EEE16__destroy_vectorC1B8ue170006ERS8_, symObjAddr: 0x6A6D4, symBinAddr: 0x10006E750, symSize: 0x80 }
  - { offsetInCU: 0x2A4EE, offset: 0x2A4EE, size: 0x8, addend: 0x0, symName: __ZNKSt16initializer_listINSt3__112basic_stringIcNS0_11char_traitsIcEENS0_9allocatorIcEEEEE4sizeB8ue170006Ev, symObjAddr: 0x6A754, symBinAddr: 0x10006E7D0, symSize: 0xB0 }
  - { offsetInCU: 0x2A514, offset: 0x2A514, size: 0x8, addend: 0x0, symName: __ZNSt3__16vectorINS_12basic_stringIcNS_11char_traitsIcEENS_9allocatorIcEEEENS4_IS6_EEE11__vallocateB8ue170006Em, symObjAddr: 0x6A804, symBinAddr: 0x10006E880, symSize: 0x5F0 }
  - { offsetInCU: 0x2A55E, offset: 0x2A55E, size: 0x8, addend: 0x0, symName: __ZNSt3__16vectorINS_12basic_stringIcNS_11char_traitsIcEENS_9allocatorIcEEEENS4_IS6_EEE18__construct_at_endIPKS6_SB_EEvT_T0_m, symObjAddr: 0x6ADF4, symBinAddr: 0x10006EE70, symSize: 0x494 }
  - { offsetInCU: 0x2A5DC, offset: 0x2A5DC, size: 0x8, addend: 0x0, symName: __ZNKSt16initializer_listINSt3__112basic_stringIcNS0_11char_traitsIcEENS0_9allocatorIcEEEEE5beginB8ue170006Ev, symObjAddr: 0x6B288, symBinAddr: 0x10006F304, symSize: 0xAC }
  - { offsetInCU: 0x2A602, offset: 0x2A602, size: 0x8, addend: 0x0, symName: __ZNKSt16initializer_listINSt3__112basic_stringIcNS0_11char_traitsIcEENS0_9allocatorIcEEEEE3endB8ue170006Ev, symObjAddr: 0x6B334, symBinAddr: 0x10006F3B0, symSize: 0x1C8 }
  - { offsetInCU: 0x2A628, offset: 0x2A628, size: 0x8, addend: 0x0, symName: __ZNSt3__128__exception_guard_exceptionsINS_6vectorINS_12basic_stringIcNS_11char_traitsIcEENS_9allocatorIcEEEENS5_IS7_EEE16__destroy_vectorEE10__completeB8ue170006Ev, symObjAddr: 0x6B4FC, symBinAddr: 0x10006F578, symSize: 0xD8 }
  - { offsetInCU: 0x2A64E, offset: 0x2A64E, size: 0x8, addend: 0x0, symName: __ZNSt3__128__exception_guard_exceptionsINS_6vectorINS_12basic_stringIcNS_11char_traitsIcEENS_9allocatorIcEEEENS5_IS7_EEE16__destroy_vectorEED1B8ue170006Ev, symObjAddr: 0x6B5D4, symBinAddr: 0x10006F650, symSize: 0x78 }
  - { offsetInCU: 0x2A678, offset: 0x2A678, size: 0x8, addend: 0x0, symName: __ZNSt3__117__compressed_pairIPNS_12basic_stringIcNS_11char_traitsIcEENS_9allocatorIcEEEENS4_IS6_EEEC2B8ue170006IDnNS_18__default_init_tagEEEOT_OT0_, symObjAddr: 0x6B64C, symBinAddr: 0x10006F6C8, symSize: 0x140 }
  - { offsetInCU: 0x2A6D0, offset: 0x2A6D0, size: 0x8, addend: 0x0, symName: __ZNSt3__122__compressed_pair_elemIPNS_12basic_stringIcNS_11char_traitsIcEENS_9allocatorIcEEEELi0ELb0EEC2B8ue170006IDnvEEOT_, symObjAddr: 0x6B78C, symBinAddr: 0x10006F808, symSize: 0xBC }
  - { offsetInCU: 0x2A712, offset: 0x2A712, size: 0x8, addend: 0x0, symName: __ZNSt3__122__compressed_pair_elemINS_9allocatorINS_12basic_stringIcNS_11char_traitsIcEENS1_IcEEEEEELi1ELb1EEC2B8ue170006ENS_18__default_init_tagE, symObjAddr: 0x6B848, symBinAddr: 0x10006F8C4, symSize: 0x84 }
  - { offsetInCU: 0x2A746, offset: 0x2A746, size: 0x8, addend: 0x0, symName: __ZNSt3__19allocatorINS_12basic_stringIcNS_11char_traitsIcEENS0_IcEEEEEC2B8ue170006Ev, symObjAddr: 0x6B8CC, symBinAddr: 0x10006F948, symSize: 0x84 }
  - { offsetInCU: 0x2A770, offset: 0x2A770, size: 0x8, addend: 0x0, symName: __ZNSt3__116__non_trivial_ifILb1ENS_9allocatorINS_12basic_stringIcNS_11char_traitsIcEENS1_IcEEEEEEEC2B8ue170006Ev, symObjAddr: 0x6B950, symBinAddr: 0x10006F9CC, symSize: 0x54 }
  - { offsetInCU: 0x2A79A, offset: 0x2A79A, size: 0x8, addend: 0x0, symName: __ZNSt3__128__exception_guard_exceptionsINS_6vectorINS_12basic_stringIcNS_11char_traitsIcEENS_9allocatorIcEEEENS5_IS7_EEE16__destroy_vectorEEC1B8ue170006ESA_, symObjAddr: 0x6B9A4, symBinAddr: 0x10006FA20, symSize: 0x28C }
  - { offsetInCU: 0x2A7D7, offset: 0x2A7D7, size: 0x8, addend: 0x0, symName: __ZNSt3__128__exception_guard_exceptionsINS_6vectorINS_12basic_stringIcNS_11char_traitsIcEENS_9allocatorIcEEEENS5_IS7_EEE16__destroy_vectorEEC2B8ue170006ESA_, symObjAddr: 0x6BC30, symBinAddr: 0x10006FCAC, symSize: 0x2BC }
  - { offsetInCU: 0x2A814, offset: 0x2A814, size: 0x8, addend: 0x0, symName: __ZNSt3__16vectorINS_12basic_stringIcNS_11char_traitsIcEENS_9allocatorIcEEEENS4_IS6_EEE16__destroy_vectorC2B8ue170006ERS8_, symObjAddr: 0x6BEEC, symBinAddr: 0x10006FF68, symSize: 0x108 }
  - { offsetInCU: 0x2A84D, offset: 0x2A84D, size: 0x8, addend: 0x0, symName: __ZNKSt3__16vectorINS_12basic_stringIcNS_11char_traitsIcEENS_9allocatorIcEEEENS4_IS6_EEE8max_sizeEv, symObjAddr: 0x6BFF4, symBinAddr: 0x100070070, symSize: 0x3B8 }
  - { offsetInCU: 0x2A876, offset: 0x2A876, size: 0x8, addend: 0x0, symName: __ZNKSt3__16vectorINS_12basic_stringIcNS_11char_traitsIcEENS_9allocatorIcEEEENS4_IS6_EEE20__throw_length_errorB8ue170006Ev, symObjAddr: 0x6C3AC, symBinAddr: 0x100070428, symSize: 0x80 }
  - { offsetInCU: 0x2A89C, offset: 0x2A89C, size: 0x8, addend: 0x0, symName: __ZNSt3__16vectorINS_12basic_stringIcNS_11char_traitsIcEENS_9allocatorIcEEEENS4_IS6_EEE7__allocB8ue170006Ev, symObjAddr: 0x6C6B8, symBinAddr: 0x100070734, symSize: 0xE4 }
  - { offsetInCU: 0x2A8C2, offset: 0x2A8C2, size: 0x8, addend: 0x0, symName: __ZNSt3__16vectorINS_12basic_stringIcNS_11char_traitsIcEENS_9allocatorIcEEEENS4_IS6_EEE9__end_capB8ue170006Ev, symObjAddr: 0x6C79C, symBinAddr: 0x100070818, symSize: 0x100 }
  - { offsetInCU: 0x2A8E8, offset: 0x2A8E8, size: 0x8, addend: 0x0, symName: __ZNKSt3__16vectorINS_12basic_stringIcNS_11char_traitsIcEENS_9allocatorIcEEEENS4_IS6_EEE14__annotate_newB8ue170006Em, symObjAddr: 0x6C89C, symBinAddr: 0x100070918, symSize: 0x378 }
  - { offsetInCU: 0x2A928, offset: 0x2A928, size: 0x8, addend: 0x0, symName: __ZNSt3__116allocator_traitsINS_9allocatorINS_12basic_stringIcNS_11char_traitsIcEENS1_IcEEEEEEE8max_sizeB8ue170006IS7_vEEmRKS7_, symObjAddr: 0x6CC14, symBinAddr: 0x100070C90, symSize: 0x24 }
  - { offsetInCU: 0x2A956, offset: 0x2A956, size: 0x8, addend: 0x0, symName: __ZNKSt3__16vectorINS_12basic_stringIcNS_11char_traitsIcEENS_9allocatorIcEEEENS4_IS6_EEE7__allocB8ue170006Ev, symObjAddr: 0x6CC38, symBinAddr: 0x100070CB4, symSize: 0xE4 }
  - { offsetInCU: 0x2A97C, offset: 0x2A97C, size: 0x8, addend: 0x0, symName: __ZNKSt3__19allocatorINS_12basic_stringIcNS_11char_traitsIcEENS0_IcEEEEE8max_sizeB8ue170006Ev, symObjAddr: 0x6CD1C, symBinAddr: 0x100070D98, symSize: 0x50 }
  - { offsetInCU: 0x2A9A2, offset: 0x2A9A2, size: 0x8, addend: 0x0, symName: __ZNKSt3__117__compressed_pairIPNS_12basic_stringIcNS_11char_traitsIcEENS_9allocatorIcEEEENS4_IS6_EEE6secondB8ue170006Ev, symObjAddr: 0x6CD6C, symBinAddr: 0x100070DE8, symSize: 0x108 }
  - { offsetInCU: 0x2A9C8, offset: 0x2A9C8, size: 0x8, addend: 0x0, symName: __ZNKSt3__122__compressed_pair_elemINS_9allocatorINS_12basic_stringIcNS_11char_traitsIcEENS1_IcEEEEEELi1ELb1EE5__getB8ue170006Ev, symObjAddr: 0x6CE74, symBinAddr: 0x100070EF0, symSize: 0x74 }
  - { offsetInCU: 0x2A9EE, offset: 0x2A9EE, size: 0x8, addend: 0x0, symName: __ZNSt3__19allocatorINS_12basic_stringIcNS_11char_traitsIcEENS0_IcEEEEE8allocateB8ue170006Em, symObjAddr: 0x6CEE8, symBinAddr: 0x100070F64, symSize: 0xD0 }
  - { offsetInCU: 0x2AA22, offset: 0x2AA22, size: 0x8, addend: 0x0, symName: __ZNSt3__117__compressed_pairIPNS_12basic_stringIcNS_11char_traitsIcEENS_9allocatorIcEEEENS4_IS6_EEE6secondB8ue170006Ev, symObjAddr: 0x6CFB8, symBinAddr: 0x100071034, symSize: 0x108 }
  - { offsetInCU: 0x2AA48, offset: 0x2AA48, size: 0x8, addend: 0x0, symName: __ZNSt3__122__compressed_pair_elemINS_9allocatorINS_12basic_stringIcNS_11char_traitsIcEENS1_IcEEEEEELi1ELb1EE5__getB8ue170006Ev, symObjAddr: 0x6D0C0, symBinAddr: 0x10007113C, symSize: 0x74 }
  - { offsetInCU: 0x2AA6E, offset: 0x2AA6E, size: 0x8, addend: 0x0, symName: __ZNSt3__117__compressed_pairIPNS_12basic_stringIcNS_11char_traitsIcEENS_9allocatorIcEEEENS4_IS6_EEE5firstB8ue170006Ev, symObjAddr: 0x6D134, symBinAddr: 0x1000711B0, symSize: 0x124 }
  - { offsetInCU: 0x2AA94, offset: 0x2AA94, size: 0x8, addend: 0x0, symName: __ZNSt3__122__compressed_pair_elemIPNS_12basic_stringIcNS_11char_traitsIcEENS_9allocatorIcEEEELi0ELb0EE5__getB8ue170006Ev, symObjAddr: 0x6D258, symBinAddr: 0x1000712D4, symSize: 0xAC }
  - { offsetInCU: 0x2AABA, offset: 0x2AABA, size: 0x8, addend: 0x0, symName: __ZNKSt3__16vectorINS_12basic_stringIcNS_11char_traitsIcEENS_9allocatorIcEEEENS4_IS6_EEE31__annotate_contiguous_containerEPKvSA_SA_SA_, symObjAddr: 0x6D304, symBinAddr: 0x100071380, symSize: 0x9C }
  - { offsetInCU: 0x2AB1C, offset: 0x2AB1C, size: 0x8, addend: 0x0, symName: __ZNKSt3__16vectorINS_12basic_stringIcNS_11char_traitsIcEENS_9allocatorIcEEEENS4_IS6_EEE4dataB8ue170006Ev, symObjAddr: 0x6D3A0, symBinAddr: 0x10007141C, symSize: 0xB0 }
  - { offsetInCU: 0x2AB42, offset: 0x2AB42, size: 0x8, addend: 0x0, symName: __ZNKSt3__16vectorINS_12basic_stringIcNS_11char_traitsIcEENS_9allocatorIcEEEENS4_IS6_EEE8capacityB8ue170006Ev, symObjAddr: 0x6D450, symBinAddr: 0x1000714CC, symSize: 0x144 }
  - { offsetInCU: 0x2AB68, offset: 0x2AB68, size: 0x8, addend: 0x0, symName: __ZNKSt3__16vectorINS_12basic_stringIcNS_11char_traitsIcEENS_9allocatorIcEEEENS4_IS6_EEE9__end_capB8ue170006Ev, symObjAddr: 0x6D5A8, symBinAddr: 0x100071624, symSize: 0x100 }
  - { offsetInCU: 0x2AB8E, offset: 0x2AB8E, size: 0x8, addend: 0x0, symName: __ZNKSt3__117__compressed_pairIPNS_12basic_stringIcNS_11char_traitsIcEENS_9allocatorIcEEEENS4_IS6_EEE5firstB8ue170006Ev, symObjAddr: 0x6D6A8, symBinAddr: 0x100071724, symSize: 0x124 }
  - { offsetInCU: 0x2ABB4, offset: 0x2ABB4, size: 0x8, addend: 0x0, symName: __ZNKSt3__122__compressed_pair_elemIPNS_12basic_stringIcNS_11char_traitsIcEENS_9allocatorIcEEEELi0ELb0EE5__getB8ue170006Ev, symObjAddr: 0x6D7CC, symBinAddr: 0x100071848, symSize: 0xAC }
  - { offsetInCU: 0x2ABF6, offset: 0x2ABF6, size: 0x8, addend: 0x0, symName: __ZNSt3__16vectorINS_12basic_stringIcNS_11char_traitsIcEENS_9allocatorIcEEEENS4_IS6_EEE21_ConstructTransactionC1B8ue170006ERS8_m, symObjAddr: 0x6D878, symBinAddr: 0x1000718F4, symSize: 0x88 }
  - { offsetInCU: 0x2AC3E, offset: 0x2AC3E, size: 0x8, addend: 0x0, symName: __ZNSt3__16vectorINS_12basic_stringIcNS_11char_traitsIcEENS_9allocatorIcEEEENS4_IS6_EEE21_ConstructTransactionD1B8ue170006Ev, symObjAddr: 0x6DC34, symBinAddr: 0x100071CB0, symSize: 0x78 }
  - { offsetInCU: 0x2AC68, offset: 0x2AC68, size: 0x8, addend: 0x0, symName: __ZNSt3__16vectorINS_12basic_stringIcNS_11char_traitsIcEENS_9allocatorIcEEEENS4_IS6_EEE21_ConstructTransactionC2B8ue170006ERS8_m, symObjAddr: 0x6DCAC, symBinAddr: 0x100071D28, symSize: 0x3E0 }
  - { offsetInCU: 0x2ACB0, offset: 0x2ACB0, size: 0x8, addend: 0x0, symName: __ZNKSt3__16vectorINS_12basic_stringIcNS_11char_traitsIcEENS_9allocatorIcEEEENS4_IS6_EEE19__annotate_increaseB8ue170006Em, symObjAddr: 0x6E08C, symBinAddr: 0x100072108, symSize: 0x46C }
  - { offsetInCU: 0x2ACE5, offset: 0x2ACE5, size: 0x8, addend: 0x0, symName: __ZNKSt3__16vectorINS_12basic_stringIcNS_11char_traitsIcEENS_9allocatorIcEEEENS4_IS6_EEE4sizeB8ue170006Ev, symObjAddr: 0x6E4F8, symBinAddr: 0x100072574, symSize: 0xF8 }
  - { offsetInCU: 0x2AD2E, offset: 0x2AD2E, size: 0x8, addend: 0x0, symName: __ZNSt3__14pairIPKNS_12basic_stringIcNS_11char_traitsIcEENS_9allocatorIcEEEES8_EC1B8ue170006IS8_S8_LPv0EEEOT_OT0_, symObjAddr: 0x6F35C, symBinAddr: 0x1000733D8, symSize: 0x88 }
  - { offsetInCU: 0x2AD8C, offset: 0x2AD8C, size: 0x8, addend: 0x0, symName: __ZNSt3__14pairIPKNS_12basic_stringIcNS_11char_traitsIcEENS_9allocatorIcEEEES8_EC2B8ue170006IS8_S8_LPv0EEEOT_OT0_, symObjAddr: 0x6F3E4, symBinAddr: 0x100073460, symSize: 0x210 }
  - { offsetInCU: 0x2ADEA, offset: 0x2ADEA, size: 0x8, addend: 0x0, symName: __ZNSt3__118__unwrap_iter_implIPKNS_12basic_stringIcNS_11char_traitsIcEENS_9allocatorIcEEEELb1EE8__unwrapB8ue170006ES8_, symObjAddr: 0x6F5F4, symBinAddr: 0x100073670, symSize: 0x24 }
  - { offsetInCU: 0x2AE0D, offset: 0x2AE0D, size: 0x8, addend: 0x0, symName: __ZNSt3__129_AllocatorDestroyRangeReverseINS_9allocatorINS_12basic_stringIcNS_11char_traitsIcEENS1_IcEEEEEEPS6_EC1B8ue170006ERS7_RS8_SB_, symObjAddr: 0x6F868, symBinAddr: 0x1000738E4, symSize: 0x90 }
  - { offsetInCU: 0x2AE64, offset: 0x2AE64, size: 0x8, addend: 0x0, symName: __ZNSt3__116allocator_traitsINS_9allocatorINS_12basic_stringIcNS_11char_traitsIcEENS1_IcEEEEEEE9constructB8ue170006IS6_JRKS6_EvEEvRS7_PT_DpOT0_, symObjAddr: 0x6F8F8, symBinAddr: 0x100073974, symSize: 0x8C }
  - { offsetInCU: 0x2AEBB, offset: 0x2AEBB, size: 0x8, addend: 0x0, symName: __ZNSt3__128__exception_guard_exceptionsINS_29_AllocatorDestroyRangeReverseINS_9allocatorINS_12basic_stringIcNS_11char_traitsIcEENS2_IcEEEEEEPS7_EEE10__completeB8ue170006Ev, symObjAddr: 0x6F984, symBinAddr: 0x100073A00, symSize: 0xD8 }
  - { offsetInCU: 0x2AEE1, offset: 0x2AEE1, size: 0x8, addend: 0x0, symName: __ZNSt3__128__exception_guard_exceptionsINS_29_AllocatorDestroyRangeReverseINS_9allocatorINS_12basic_stringIcNS_11char_traitsIcEENS2_IcEEEEEEPS7_EEED1B8ue170006Ev, symObjAddr: 0x6FA5C, symBinAddr: 0x100073AD8, symSize: 0x78 }
  - { offsetInCU: 0x2AF0B, offset: 0x2AF0B, size: 0x8, addend: 0x0, symName: __ZNSt3__128__exception_guard_exceptionsINS_29_AllocatorDestroyRangeReverseINS_9allocatorINS_12basic_stringIcNS_11char_traitsIcEENS2_IcEEEEEEPS7_EEEC1B8ue170006ESA_, symObjAddr: 0x6FAD4, symBinAddr: 0x100073B50, symSize: 0x84 }
  - { offsetInCU: 0x2AF44, offset: 0x2AF44, size: 0x8, addend: 0x0, symName: __ZNSt3__128__exception_guard_exceptionsINS_29_AllocatorDestroyRangeReverseINS_9allocatorINS_12basic_stringIcNS_11char_traitsIcEENS2_IcEEEEEEPS7_EEEC2B8ue170006ESA_, symObjAddr: 0x6FB58, symBinAddr: 0x100073BD4, symSize: 0xF8 }
  - { offsetInCU: 0x2AF7D, offset: 0x2AF7D, size: 0x8, addend: 0x0, symName: __ZNSt3__129_AllocatorDestroyRangeReverseINS_9allocatorINS_12basic_stringIcNS_11char_traitsIcEENS1_IcEEEEEEPS6_EC2B8ue170006ERS7_RS8_SB_, symObjAddr: 0x6FC50, symBinAddr: 0x100073CCC, symSize: 0x20C }
  - { offsetInCU: 0x2AFD4, offset: 0x2AFD4, size: 0x8, addend: 0x0, symName: __ZNSt3__19allocatorINS_12basic_stringIcNS_11char_traitsIcEENS0_IcEEEEE9constructB8ue170006IS5_JRKS5_EEEvPT_DpOT0_, symObjAddr: 0x6FE5C, symBinAddr: 0x100073ED8, symSize: 0xEC }
  - { offsetInCU: 0x2B02A, offset: 0x2B02A, size: 0x8, addend: 0x0, symName: __ZNSt3__128__exception_guard_exceptionsINS_29_AllocatorDestroyRangeReverseINS_9allocatorINS_12basic_stringIcNS_11char_traitsIcEENS2_IcEEEEEEPS7_EEED2B8ue170006Ev, symObjAddr: 0x6FF48, symBinAddr: 0x100073FC4, symSize: 0x17C }
  - { offsetInCU: 0x2B054, offset: 0x2B054, size: 0x8, addend: 0x0, symName: __ZNKSt3__129_AllocatorDestroyRangeReverseINS_9allocatorINS_12basic_stringIcNS_11char_traitsIcEENS1_IcEEEEEEPS6_EclB8ue170006Ev, symObjAddr: 0x700C4, symBinAddr: 0x100074140, symSize: 0x40C }
  - { offsetInCU: 0x2B07B, offset: 0x2B07B, size: 0x8, addend: 0x0, symName: __ZNSt3__116reverse_iteratorIPNS_12basic_stringIcNS_11char_traitsIcEENS_9allocatorIcEEEEEC1B8ue170006ES7_, symObjAddr: 0x707AC, symBinAddr: 0x100074828, symSize: 0x80 }
  - { offsetInCU: 0x2B0B3, offset: 0x2B0B3, size: 0x8, addend: 0x0, symName: __ZNSt3__116allocator_traitsINS_9allocatorINS_12basic_stringIcNS_11char_traitsIcEENS1_IcEEEEEEE7destroyB8ue170006IS6_vEEvRS7_PT_, symObjAddr: 0x708C8, symBinAddr: 0x100074944, symSize: 0x2C }
  - { offsetInCU: 0x2B0F0, offset: 0x2B0F0, size: 0x8, addend: 0x0, symName: __ZNSt3__116reverse_iteratorIPNS_12basic_stringIcNS_11char_traitsIcEENS_9allocatorIcEEEEEppB8ue170006Ev, symObjAddr: 0x70960, symBinAddr: 0x1000749DC, symSize: 0x1B0 }
  - { offsetInCU: 0x2B116, offset: 0x2B116, size: 0x8, addend: 0x0, symName: __ZNKSt3__116reverse_iteratorIPNS_12basic_stringIcNS_11char_traitsIcEENS_9allocatorIcEEEEE4baseB8ue170006Ev, symObjAddr: 0x70B10, symBinAddr: 0x100074B8C, symSize: 0xB0 }
  - { offsetInCU: 0x2B13C, offset: 0x2B13C, size: 0x8, addend: 0x0, symName: __ZNSt3__19allocatorINS_12basic_stringIcNS_11char_traitsIcEENS0_IcEEEEE7destroyB8ue170006EPS5_, symObjAddr: 0x70BC0, symBinAddr: 0x100074C3C, symSize: 0x9C }
  - { offsetInCU: 0x2B176, offset: 0x2B176, size: 0x8, addend: 0x0, symName: __ZNSt3__119__to_address_helperINS_16reverse_iteratorIPNS_12basic_stringIcNS_11char_traitsIcEENS_9allocatorIcEEEEEEvE6__callB8ue170006ERKS9_, symObjAddr: 0x70C5C, symBinAddr: 0x100074CD8, symSize: 0x70 }
  - { offsetInCU: 0x2B199, offset: 0x2B199, size: 0x8, addend: 0x0, symName: __ZNKSt3__116reverse_iteratorIPNS_12basic_stringIcNS_11char_traitsIcEENS_9allocatorIcEEEEEptB8ue170006Ev, symObjAddr: 0x70CCC, symBinAddr: 0x100074D48, symSize: 0x6C }
  - { offsetInCU: 0x2B1BF, offset: 0x2B1BF, size: 0x8, addend: 0x0, symName: __ZNKSt3__116reverse_iteratorIPNS_12basic_stringIcNS_11char_traitsIcEENS_9allocatorIcEEEEEdeB8ue170006Ev, symObjAddr: 0x70D38, symBinAddr: 0x100074DB4, symSize: 0x184 }
  - { offsetInCU: 0x2B1F3, offset: 0x2B1F3, size: 0x8, addend: 0x0, symName: __ZNSt3__116reverse_iteratorIPNS_12basic_stringIcNS_11char_traitsIcEENS_9allocatorIcEEEEEC2B8ue170006ES7_, symObjAddr: 0x70EBC, symBinAddr: 0x100074F38, symSize: 0x10C }
  - { offsetInCU: 0x2B22B, offset: 0x2B22B, size: 0x8, addend: 0x0, symName: __ZNSt3__118__unwrap_iter_implIPNS_12basic_stringIcNS_11char_traitsIcEENS_9allocatorIcEEEELb1EE8__unwrapB8ue170006ES7_, symObjAddr: 0x70FC8, symBinAddr: 0x100075044, symSize: 0x24 }
  - { offsetInCU: 0x2B24E, offset: 0x2B24E, size: 0x8, addend: 0x0, symName: __ZNSt3__118__unwrap_iter_implIPNS_12basic_stringIcNS_11char_traitsIcEENS_9allocatorIcEEEELb1EE8__rewrapB8ue170006ES7_S7_, symObjAddr: 0x70FEC, symBinAddr: 0x100075068, symSize: 0x140 }
  - { offsetInCU: 0x2B27F, offset: 0x2B27F, size: 0x8, addend: 0x0, symName: __ZNSt3__16vectorINS_12basic_stringIcNS_11char_traitsIcEENS_9allocatorIcEEEENS4_IS6_EEE21_ConstructTransactionD2B8ue170006Ev, symObjAddr: 0x7112C, symBinAddr: 0x1000751A8, symSize: 0x390 }
  - { offsetInCU: 0x2B2A9, offset: 0x2B2A9, size: 0x8, addend: 0x0, symName: __ZNKSt3__16vectorINS_12basic_stringIcNS_11char_traitsIcEENS_9allocatorIcEEEENS4_IS6_EEE17__annotate_shrinkB8ue170006Em, symObjAddr: 0x714BC, symBinAddr: 0x100075538, symSize: 0x378 }
  - { offsetInCU: 0x2B2DE, offset: 0x2B2DE, size: 0x8, addend: 0x0, symName: __ZNSt3__128__exception_guard_exceptionsINS_6vectorINS_12basic_stringIcNS_11char_traitsIcEENS_9allocatorIcEEEENS5_IS7_EEE16__destroy_vectorEED2B8ue170006Ev, symObjAddr: 0x71834, symBinAddr: 0x1000758B0, symSize: 0x17C }
  - { offsetInCU: 0x2B308, offset: 0x2B308, size: 0x8, addend: 0x0, symName: __ZNSt3__16vectorINS_12basic_stringIcNS_11char_traitsIcEENS_9allocatorIcEEEENS4_IS6_EEE16__destroy_vectorclB8ue170006Ev, symObjAddr: 0x719B0, symBinAddr: 0x100075A2C, symSize: 0x43C }
  - { offsetInCU: 0x2B32E, offset: 0x2B32E, size: 0x8, addend: 0x0, symName: __ZNSt3__16vectorINS_12basic_stringIcNS_11char_traitsIcEENS_9allocatorIcEEEENS4_IS6_EEE7__clearB8ue170006Ev, symObjAddr: 0x71DEC, symBinAddr: 0x100075E68, symSize: 0xB0 }
  - { offsetInCU: 0x2B354, offset: 0x2B354, size: 0x8, addend: 0x0, symName: __ZNKSt3__16vectorINS_12basic_stringIcNS_11char_traitsIcEENS_9allocatorIcEEEENS4_IS6_EEE17__annotate_deleteB8ue170006Ev, symObjAddr: 0x71E9C, symBinAddr: 0x100075F18, symSize: 0x388 }
  - { offsetInCU: 0x2B37A, offset: 0x2B37A, size: 0x8, addend: 0x0, symName: __ZNSt3__116allocator_traitsINS_9allocatorINS_12basic_stringIcNS_11char_traitsIcEENS1_IcEEEEEEE10deallocateB8ue170006ERS7_PS6_m, symObjAddr: 0x72224, symBinAddr: 0x1000762A0, symSize: 0x34 }
  - { offsetInCU: 0x2B3BC, offset: 0x2B3BC, size: 0x8, addend: 0x0, symName: __ZNSt3__16vectorINS_12basic_stringIcNS_11char_traitsIcEENS_9allocatorIcEEEENS4_IS6_EEE22__base_destruct_at_endB8ue170006EPS6_, symObjAddr: 0x72258, symBinAddr: 0x1000762D4, symSize: 0x1FC }
  - { offsetInCU: 0x2B400, offset: 0x2B400, size: 0x8, addend: 0x0, symName: __ZNSt3__19allocatorINS_12basic_stringIcNS_11char_traitsIcEENS0_IcEEEEE10deallocateB8ue170006EPS5_m, symObjAddr: 0x72454, symBinAddr: 0x1000764D0, symSize: 0x7C }
  - { offsetInCU: 0x2B442, offset: 0x2B442, size: 0x8, addend: 0x0, symName: __ZNSt3__112basic_stringIcNS_11char_traitsIcEENS_9allocatorIcEEE6appendB8ue170006ERKS5_, symObjAddr: 0x724D0, symBinAddr: 0x10007654C, symSize: 0x12C }
  - { offsetInCU: 0x2B477, offset: 0x2B477, size: 0x8, addend: 0x0, symName: __ZNSt3__112basic_stringIcNS_11char_traitsIcEENS_9allocatorIcEEE14__erase_to_endB8ue170006Em, symObjAddr: 0x725FC, symBinAddr: 0x100076678, symSize: 0x84 }
  - { offsetInCU: 0x2B4AC, offset: 0x2B4AC, size: 0x8, addend: 0x0, symName: __ZNSt3__112basic_stringIcNS_11char_traitsIcEENS_9allocatorIcEEE19__null_terminate_atB8ue170006EPcm, symObjAddr: 0x72680, symBinAddr: 0x1000766FC, symSize: 0x3D8 }
  - { offsetInCU: 0x2B4F3, offset: 0x2B4F3, size: 0x8, addend: 0x0, symName: __ZNSt3__112basic_stringIcNS_11char_traitsIcEENS_9allocatorIcEEE10__set_sizeB8ue170006Em, symObjAddr: 0x72A58, symBinAddr: 0x100076AD4, symSize: 0x98 }
  - { offsetInCU: 0x2B528, offset: 0x2B528, size: 0x8, addend: 0x0, symName: __ZNSt3__111char_traitsIcE6assignB8ue170006ERcRKc, symObjAddr: 0x72AF0, symBinAddr: 0x100076B6C, symSize: 0xF4 }
  - { offsetInCU: 0x2B559, offset: 0x2B559, size: 0x8, addend: 0x0, symName: __ZNSt3__112basic_stringIcNS_11char_traitsIcEENS_9allocatorIcEEE15__set_long_sizeB8ue170006Em, symObjAddr: 0x72BE4, symBinAddr: 0x100076C60, symSize: 0x220 }
  - { offsetInCU: 0x2B58E, offset: 0x2B58E, size: 0x8, addend: 0x0, symName: __ZNSt3__112basic_stringIcNS_11char_traitsIcEENS_9allocatorIcEEE16__set_short_sizeB8ue170006Em, symObjAddr: 0x72E04, symBinAddr: 0x100076E80, symSize: 0x394 }
  - { offsetInCU: 0x2B5C3, offset: 0x2B5C3, size: 0x8, addend: 0x0, symName: __ZNSt3__16vectorINS_12basic_stringIcNS_11char_traitsIcEENS_9allocatorIcEEEENS4_IS6_EEED2B8ue170006Ev, symObjAddr: 0x73198, symBinAddr: 0x100077214, symSize: 0x294 }
  - { offsetInCU: 0x2B5EE, offset: 0x2B5EE, size: 0x8, addend: 0x0, symName: __ZN4User11getIncomingEv, symObjAddr: 0x7342C, symBinAddr: 0x1000774A8, symSize: 0x108 }
  - { offsetInCU: 0x2B614, offset: 0x2B614, size: 0x8, addend: 0x0, symName: __ZN4User11getOutgoingEv, symObjAddr: 0x73534, symBinAddr: 0x1000775B0, symSize: 0x108 }
  - { offsetInCU: 0x2B63A, offset: 0x2B63A, size: 0x8, addend: 0x0, symName: __ZNSt3__112basic_stringIcNS_11char_traitsIcEENS_9allocatorIcEEEpLB8ue170006EPKc, symObjAddr: 0x7363C, symBinAddr: 0x1000776B8, symSize: 0xBC }
  - { offsetInCU: 0x2B66F, offset: 0x2B66F, size: 0x8, addend: 0x0, symName: __ZNSt3__112basic_stringIcNS_11char_traitsIcEENS_9allocatorIcEEEpLB8ue170006ERKS5_, symObjAddr: 0x737F0, symBinAddr: 0x10007786C, symSize: 0x104 }
  - { offsetInCU: 0x2B6A4, offset: 0x2B6A4, size: 0x8, addend: 0x0, symName: __ZNSt3__114basic_ifstreamIcNS_11char_traitsIcEEED2Ev, symObjAddr: 0x738F4, symBinAddr: 0x100077970, symSize: 0x1E8 }
  - { offsetInCU: 0x2B6DE, offset: 0x2B6DE, size: 0x8, addend: 0x0, symName: __ZTv0_n24_NSt3__114basic_ifstreamIcNS_11char_traitsIcEEED1Ev, symObjAddr: 0x73ADC, symBinAddr: 0x100077B58, symSize: 0xB0 }
  - { offsetInCU: 0x2B6F5, offset: 0x2B6F5, size: 0x8, addend: 0x0, symName: __ZN4BankD2Ev, symObjAddr: 0x73B8C, symBinAddr: 0x100077C08, symSize: 0x90 }
  - { offsetInCU: 0x2B721, offset: 0x2B721, size: 0x8, addend: 0x0, symName: __ZNSt3__114priority_queueI11TransactionNS_6vectorIS1_NS_9allocatorIS1_EEEE18TransactionCompareED1Ev, symObjAddr: 0x73C1C, symBinAddr: 0x100077C98, symSize: 0x78 }
  - { offsetInCU: 0x2B74E, offset: 0x2B74E, size: 0x8, addend: 0x0, symName: __ZNSt3__113unordered_mapINS_12basic_stringIcNS_11char_traitsIcEENS_9allocatorIcEEEE4UserNS_4hashIS6_EENS_8equal_toIS6_EENS4_INS_4pairIKS6_S7_EEEEED1B8ue170006Ev, symObjAddr: 0x73C94, symBinAddr: 0x100077D10, symSize: 0x78 }
  - { offsetInCU: 0x2B778, offset: 0x2B778, size: 0x8, addend: 0x0, symName: __ZNSt3__114priority_queueI11TransactionNS_6vectorIS1_NS_9allocatorIS1_EEEE18TransactionCompareED2Ev, symObjAddr: 0x73D0C, symBinAddr: 0x100077D88, symSize: 0x78 }
  - { offsetInCU: 0x2B7A5, offset: 0x2B7A5, size: 0x8, addend: 0x0, symName: __ZNSt3__113unordered_mapINS_12basic_stringIcNS_11char_traitsIcEENS_9allocatorIcEEEE4UserNS_4hashIS6_EENS_8equal_toIS6_EENS4_INS_4pairIKS6_S7_EEEEED2B8ue170006Ev, symObjAddr: 0x73D84, symBinAddr: 0x100077E00, symSize: 0x78 }
  - { offsetInCU: 0x2B7CF, offset: 0x2B7CF, size: 0x8, addend: 0x0, symName: __ZNSt3__112__hash_tableINS_17__hash_value_typeINS_12basic_stringIcNS_11char_traitsIcEENS_9allocatorIcEEEE4UserEENS_22__unordered_map_hasherIS7_S9_NS_4hashIS7_EENS_8equal_toIS7_EELb1EEENS_21__unordered_map_equalIS7_S9_SE_SC_Lb1EEENS5_IS9_EEED1Ev, symObjAddr: 0x73DFC, symBinAddr: 0x100077E78, symSize: 0x78 }
  - { offsetInCU: 0x2B7FB, offset: 0x2B7FB, size: 0x8, addend: 0x0, symName: __ZNSt3__112__hash_tableINS_17__hash_value_typeINS_12basic_stringIcNS_11char_traitsIcEENS_9allocatorIcEEEE4UserEENS_22__unordered_map_hasherIS7_S9_NS_4hashIS7_EENS_8equal_toIS7_EELb1EEENS_21__unordered_map_equalIS7_S9_SE_SC_Lb1EEENS5_IS9_EEED2Ev, symObjAddr: 0x73E74, symBinAddr: 0x100077EF0, symSize: 0x1A4 }
  - { offsetInCU: 0x2B827, offset: 0x2B827, size: 0x8, addend: 0x0, symName: __ZNSt3__112__hash_tableINS_17__hash_value_typeINS_12basic_stringIcNS_11char_traitsIcEENS_9allocatorIcEEEE4UserEENS_22__unordered_map_hasherIS7_S9_NS_4hashIS7_EENS_8equal_toIS7_EELb1EEENS_21__unordered_map_equalIS7_S9_SE_SC_Lb1EEENS5_IS9_EEE17__deallocate_nodeEPNS_16__hash_node_baseIPNS_11__hash_nodeIS9_PvEEEE, symObjAddr: 0x74018, symBinAddr: 0x100078094, symSize: 0x318 }
  - { offsetInCU: 0x2B891, offset: 0x2B891, size: 0x8, addend: 0x0, symName: __ZNSt3__110unique_ptrIA_PNS_16__hash_node_baseIPNS_11__hash_nodeINS_17__hash_value_typeINS_12basic_stringIcNS_11char_traitsIcEENS_9allocatorIcEEEE4UserEEPvEEEENS_25__bucket_list_deallocatorINS7_ISG_EEEEED1B8ue170006Ev, symObjAddr: 0x74330, symBinAddr: 0x1000783AC, symSize: 0x78 }
  - { offsetInCU: 0x2B8BB, offset: 0x2B8BB, size: 0x8, addend: 0x0, symName: __ZNSt3__110unique_ptrIA_PNS_16__hash_node_baseIPNS_11__hash_nodeINS_17__hash_value_typeINS_12basic_stringIcNS_11char_traitsIcEENS_9allocatorIcEEEE4UserEEPvEEEENS_25__bucket_list_deallocatorINS7_ISG_EEEEED2B8ue170006Ev, symObjAddr: 0x743A8, symBinAddr: 0x100078424, symSize: 0x7C }
  - { offsetInCU: 0x2B8E5, offset: 0x2B8E5, size: 0x8, addend: 0x0, symName: __ZNSt3__110unique_ptrIA_PNS_16__hash_node_baseIPNS_11__hash_nodeINS_17__hash_value_typeINS_12basic_stringIcNS_11char_traitsIcEENS_9allocatorIcEEEE4UserEEPvEEEENS_25__bucket_list_deallocatorINS7_ISG_EEEEE5resetB8ue170006EDn, symObjAddr: 0x74424, symBinAddr: 0x1000784A0, symSize: 0x2C0 }
  - { offsetInCU: 0x2B926, offset: 0x2B926, size: 0x8, addend: 0x0, symName: __ZNSt3__112basic_stringIcNS_11char_traitsIcEENS_9allocatorIcEEEC2B8ue170006Ev, symObjAddr: 0x746E4, symBinAddr: 0x100078760, symSize: 0x270 }
  - { offsetInCU: 0x2B951, offset: 0x2B951, size: 0x8, addend: 0x0, symName: __ZNSt3__112basic_stringIcNS_11char_traitsIcEENS_9allocatorIcEEE13__move_assignB8ue170006ERS5_NS_17integral_constantIbLb1EEE, symObjAddr: 0x74954, symBinAddr: 0x1000789D0, symSize: 0x480 }
  - { offsetInCU: 0x2B997, offset: 0x2B997, size: 0x8, addend: 0x0, symName: __ZNSt3__116allocator_traitsINS_9allocatorIcEEE10deallocateB8ue170006ERS2_Pcm, symObjAddr: 0x74DD4, symBinAddr: 0x100078E50, symSize: 0x34 }
  - { offsetInCU: 0x2B9D9, offset: 0x2B9D9, size: 0x8, addend: 0x0, symName: __ZNSt3__112basic_stringIcNS_11char_traitsIcEENS_9allocatorIcEEE7__allocB8ue170006Ev, symObjAddr: 0x74E08, symBinAddr: 0x100078E84, symSize: 0xDC }
  - { offsetInCU: 0x2B9FF, offset: 0x2B9FF, size: 0x8, addend: 0x0, symName: __ZNKSt3__112basic_stringIcNS_11char_traitsIcEENS_9allocatorIcEEE14__get_long_capB8ue170006Ev, symObjAddr: 0x74EE4, symBinAddr: 0x100078F60, symSize: 0x1D0 }
  - { offsetInCU: 0x2BA25, offset: 0x2BA25, size: 0x8, addend: 0x0, symName: __ZNSt3__112basic_stringIcNS_11char_traitsIcEENS_9allocatorIcEEE19__move_assign_allocB8ue170006ERS5_, symObjAddr: 0x750B4, symBinAddr: 0x100079130, symSize: 0xBC }
  - { offsetInCU: 0x2BA5A, offset: 0x2BA5A, size: 0x8, addend: 0x0, symName: __ZNSt3__19allocatorIcE10deallocateB8ue170006EPcm, symObjAddr: 0x75170, symBinAddr: 0x1000791EC, symSize: 0x78 }
  - { offsetInCU: 0x2BA9C, offset: 0x2BA9C, size: 0x8, addend: 0x0, symName: __ZNSt3__117__compressed_pairINS_12basic_stringIcNS_11char_traitsIcEENS_9allocatorIcEEE5__repES5_E6secondB8ue170006Ev, symObjAddr: 0x751E8, symBinAddr: 0x100079264, symSize: 0x108 }
  - { offsetInCU: 0x2BAC2, offset: 0x2BAC2, size: 0x8, addend: 0x0, symName: __ZNSt3__122__compressed_pair_elemINS_9allocatorIcEELi1ELb1EE5__getB8ue170006Ev, symObjAddr: 0x752F0, symBinAddr: 0x10007936C, symSize: 0x74 }
  - { offsetInCU: 0x2BAE8, offset: 0x2BAE8, size: 0x8, addend: 0x0, symName: __ZNSt3__112basic_stringIcNS_11char_traitsIcEENS_9allocatorIcEEE19__move_assign_allocB8ue170006ERS5_NS_17integral_constantIbLb1EEE, symObjAddr: 0x75364, symBinAddr: 0x1000793E0, symSize: 0xA4 }
  - { offsetInCU: 0x2BB29, offset: 0x2BB29, size: 0x8, addend: 0x0, symName: __ZNSt3__19allocatorIcEC1B8ue170006Ev, symObjAddr: 0x75408, symBinAddr: 0x100079484, symSize: 0x5C }
  - { offsetInCU: 0x2BB53, offset: 0x2BB53, size: 0x8, addend: 0x0, symName: __ZNSt3__112basic_stringIcNS_11char_traitsIcEENS_9allocatorIcEEEC2B8ue170006ILi0EEEPKc, symObjAddr: 0x75464, symBinAddr: 0x1000794E0, symSize: 0x278 }
  - { offsetInCU: 0x2BB94, offset: 0x2BB94, size: 0x8, addend: 0x0, symName: __ZNSt3__19basic_iosIcNS_11char_traitsIcEEEC2B8ue170006Ev, symObjAddr: 0x756DC, symBinAddr: 0x100079758, symSize: 0x118 }
  - { offsetInCU: 0x2BBBE, offset: 0x2BBBE, size: 0x8, addend: 0x0, symName: __ZNSt3__113basic_istreamIcNS_11char_traitsIcEEEC2B8ue170006EPNS_15basic_streambufIcS2_EE, symObjAddr: 0x757F4, symBinAddr: 0x100079870, symSize: 0x3B8 }
  - { offsetInCU: 0x2BC03, offset: 0x2BC03, size: 0x8, addend: 0x0, symName: __ZNSt3__113basic_filebufIcNS_11char_traitsIcEEE4openERKNS_12basic_stringIcS2_NS_9allocatorIcEEEEj, symObjAddr: 0x75BAC, symBinAddr: 0x100079C28, symSize: 0x138 }
  - { offsetInCU: 0x2BC47, offset: 0x2BC47, size: 0x8, addend: 0x0, symName: __ZNSt3__18ios_baseC2B8ue170006Ev, symObjAddr: 0x75CE4, symBinAddr: 0x100079D60, symSize: 0xCC }
  - { offsetInCU: 0x2BC71, offset: 0x2BC71, size: 0x8, addend: 0x0, symName: __ZNSt3__19basic_iosIcNS_11char_traitsIcEEE4initB8ue170006EPNS_15basic_streambufIcS2_EE, symObjAddr: 0x75DB0, symBinAddr: 0x100079E2C, symSize: 0x2C8 }
  - { offsetInCU: 0x2BCA8, offset: 0x2BCA8, size: 0x8, addend: 0x0, symName: __ZNKSt3__18ios_base4goodB8ue170006Ev, symObjAddr: 0x76078, symBinAddr: 0x10007A0F4, symSize: 0x16C }
  - { offsetInCU: 0x2BCF3, offset: 0x2BCF3, size: 0x8, addend: 0x0, symName: __ZNKSt3__113basic_istreamIcNS_11char_traitsIcEEE6sentrycvbB8ue170006Ev, symObjAddr: 0x761E4, symBinAddr: 0x10007A260, symSize: 0xE8 }
  - { offsetInCU: 0x2BD19, offset: 0x2BD19, size: 0x8, addend: 0x0, symName: __ZNSt3__112basic_stringIcNS_11char_traitsIcEENS_9allocatorIcEEE5clearB8ue170006Ev, symObjAddr: 0x762CC, symBinAddr: 0x10007A348, symSize: 0x398 }
  - { offsetInCU: 0x2BD42, offset: 0x2BD42, size: 0x8, addend: 0x0, symName: __ZNSt3__115basic_streambufIcNS_11char_traitsIcEEE6sbumpcB8ue170006Ev, symObjAddr: 0x76664, symBinAddr: 0x10007A6E0, symSize: 0x4D8 }
  - { offsetInCU: 0x2BD68, offset: 0x2BD68, size: 0x8, addend: 0x0, symName: __ZNSt3__111char_traitsIcE12to_char_typeB8ue170006Ei, symObjAddr: 0x76B3C, symBinAddr: 0x10007ABB8, symSize: 0x18 }
  - { offsetInCU: 0x2BD8B, offset: 0x2BD8B, size: 0x8, addend: 0x0, symName: __ZNSt3__111char_traitsIcE2eqEcc, symObjAddr: 0x76B54, symBinAddr: 0x10007ABD0, symSize: 0x28 }
  - { offsetInCU: 0x2BDBC, offset: 0x2BDBC, size: 0x8, addend: 0x0, symName: __ZNKSt3__112basic_stringIcNS_11char_traitsIcEENS_9allocatorIcEEE8max_sizeB8ue170006Ev, symObjAddr: 0x76B7C, symBinAddr: 0x10007ABF8, symSize: 0x1B8 }
  - { offsetInCU: 0x2BE0E, offset: 0x2BE0E, size: 0x8, addend: 0x0, symName: __ZNSt3__18ios_base18__setstate_nothrowB8ue170006Ej, symObjAddr: 0x76D34, symBinAddr: 0x10007ADB0, symSize: 0x320 }
  - { offsetInCU: 0x2BE43, offset: 0x2BE43, size: 0x8, addend: 0x0, symName: __ZNKSt3__19basic_iosIcNS_11char_traitsIcEEE10exceptionsB8ue170006Ev, symObjAddr: 0x77054, symBinAddr: 0x10007B0D0, symSize: 0x120 }
  - { offsetInCU: 0x2BE69, offset: 0x2BE69, size: 0x8, addend: 0x0, symName: __ZNSt3__111char_traitsIcE11to_int_typeB8ue170006Ec, symObjAddr: 0x77174, symBinAddr: 0x10007B1F0, symSize: 0x14 }
  - { offsetInCU: 0x2BE98, offset: 0x2BE98, size: 0x8, addend: 0x0, symName: __ZNSt3__116allocator_traitsINS_9allocatorIcEEE8max_sizeB8ue170006IS2_vEEmRKS2_, symObjAddr: 0x77188, symBinAddr: 0x10007B204, symSize: 0x24 }
  - { offsetInCU: 0x2BEC6, offset: 0x2BEC6, size: 0x8, addend: 0x0, symName: __ZNKSt3__112basic_stringIcNS_11char_traitsIcEENS_9allocatorIcEEE7__allocB8ue170006Ev, symObjAddr: 0x771AC, symBinAddr: 0x10007B228, symSize: 0xDC }
  - { offsetInCU: 0x2BEEC, offset: 0x2BEEC, size: 0x8, addend: 0x0, symName: __ZNSt3__114numeric_limitsImE3maxB8ue170006Ev, symObjAddr: 0x77288, symBinAddr: 0x10007B304, symSize: 0x14 }
  - { offsetInCU: 0x2BF00, offset: 0x2BF00, size: 0x8, addend: 0x0, symName: __ZNKSt3__19allocatorIcE8max_sizeB8ue170006Ev, symObjAddr: 0x7729C, symBinAddr: 0x10007B318, symSize: 0x4C }
  - { offsetInCU: 0x2BF26, offset: 0x2BF26, size: 0x8, addend: 0x0, symName: __ZNKSt3__117__compressed_pairINS_12basic_stringIcNS_11char_traitsIcEENS_9allocatorIcEEE5__repES5_E6secondB8ue170006Ev, symObjAddr: 0x772E8, symBinAddr: 0x10007B364, symSize: 0x108 }
  - { offsetInCU: 0x2BF4C, offset: 0x2BF4C, size: 0x8, addend: 0x0, symName: __ZNKSt3__122__compressed_pair_elemINS_9allocatorIcEELi1ELb1EE5__getB8ue170006Ev, symObjAddr: 0x773F0, symBinAddr: 0x10007B46C, symSize: 0x74 }
  - { offsetInCU: 0x2BF72, offset: 0x2BF72, size: 0x8, addend: 0x0, symName: __ZNSt3__123__libcpp_numeric_limitsImLb1EE3maxB8ue170006Ev, symObjAddr: 0x77464, symBinAddr: 0x10007B4E0, symSize: 0x8 }
  - { offsetInCU: 0x2BF86, offset: 0x2BF86, size: 0x8, addend: 0x0, symName: __ZNKSt3__18ios_base10exceptionsB8ue170006Ev, symObjAddr: 0x7746C, symBinAddr: 0x10007B4E8, symSize: 0x160 }
  - { offsetInCU: 0x2BFAE, offset: 0x2BFAE, size: 0x8, addend: 0x0, symName: __ZNKSt3__18ios_base4failB8ue170006Ev, symObjAddr: 0x775CC, symBinAddr: 0x10007B648, symSize: 0x170 }
  - { offsetInCU: 0x2BFD6, offset: 0x2BFD6, size: 0x8, addend: 0x0, symName: __ZNSt3__115basic_streambufIcNS_11char_traitsIcEEE5sgetcB8ue170006Ev, symObjAddr: 0x7773C, symBinAddr: 0x10007B7B8, symSize: 0x418 }
  - { offsetInCU: 0x2BFFC, offset: 0x2BFFC, size: 0x8, addend: 0x0, symName: __ZNKSt3__15ctypeIcE2isB8ue170006Ejc, symObjAddr: 0x77B54, symBinAddr: 0x10007BBD0, symSize: 0x314 }
  - { offsetInCU: 0x2C03F, offset: 0x2C03F, size: 0x8, addend: 0x0, symName: __Z7isasciii, symObjAddr: 0x77E68, symBinAddr: 0x10007BEE4, symSize: 0x24 }
...
